Component: ARM Compiler 5.06 update 6 (build 750) Tool: armlink [4d35ed]

==============================================================================

Section Cross References

    main.o(.text) refers to os_cpu_a.o(.text) for OS_CPU_SR_Save
    main.o(.text) refers to os_task.o(.text) for OSTaskCreate
    main.o(.text) refers to delay.o(.text) for delay_init
    main.o(.text) refers to led.o(.text) for LED_Init
    main.o(.text) refers to wiz_platform.o(.text) for debug_usart_init
    main.o(.text) refers to os_core.o(.text) for OSInit
    main.o(.text) refers to task_tcp.o(.bss) for TCP_TASK_STK
    main.o(.text) refers to task_tcp.o(.text) for tcp_task
    main.o(.text) refers to main.o(.bss) for START_TASK_STK
    system_stm32f4xx.o(.text) refers to system_stm32f4xx.o(.data) for SystemCoreClock
    task_tcp.o(.text) refers to _printf_percent.o(.ARM.Collect$$_printf_percent$$00000000) for _printf_percent
    task_tcp.o(.text) refers to _printf_u.o(.ARM.Collect$$_printf_percent$$0000000A) for _printf_u
    task_tcp.o(.text) refers to _printf_dec.o(.text) for _printf_int_dec
    task_tcp.o(.text) refers to _printf_d.o(.ARM.Collect$$_printf_percent$$00000009) for _printf_d
    task_tcp.o(.text) refers to _printf_s.o(.ARM.Collect$$_printf_percent$$00000014) for _printf_s
    task_tcp.o(.text) refers to _printf_str.o(.text) for _printf_str
    task_tcp.o(.text) refers to noretval__2printf.o(.text) for __2printf
    task_tcp.o(.text) refers to wiz_platform.o(.text) for wizchip_reset
    task_tcp.o(.text) refers to delay.o(.text) for delay_ms
    task_tcp.o(.text) refers to wiz_interface.o(.text) for wizchip_initialize
    task_tcp.o(.text) refers to spi.o(.text) for SPI2_SetSpeed
    task_tcp.o(.text) refers to modtcpbsp.o(.text) for tcp_srv_single_init
    task_tcp.o(.text) refers to mb.o(.text) for eMBTCPInit
    task_tcp.o(.text) refers to porttcp.o(.text) for vMBPortTCPPool
    task_tcp.o(.text) refers to os_time.o(.text) for OSTimeGet
    task_tcp.o(.text) refers to w5500.o(.text) for WIZCHIP_READ
    task_tcp.o(.text) refers to task_tcp.o(.data) for default_net_info
    task_tcp.o(.text) refers to task_tcp.o(.bss) for ethernet_buf
    led.o(.text) refers to stm32f4xx_rcc.o(.text) for RCC_AHB1PeriphClockCmd
    led.o(.text) refers to stm32f4xx_gpio.o(.text) for GPIO_Init
    timer.o(.text) refers to stm32f4xx_rcc.o(.text) for RCC_APB1PeriphClockCmd
    timer.o(.text) refers to stm32f4xx_tim.o(.text) for TIM_TimeBaseInit
    timer.o(.text) refers to misc.o(.text) for NVIC_Init
    spi.o(.text) refers to stm32f4xx_spi.o(.text) for SPI_I2S_GetFlagStatus
    spi.o(.text) refers to stm32f4xx_rcc.o(.text) for RCC_AHB1PeriphClockCmd
    spi.o(.text) refers to stm32f4xx_gpio.o(.text) for GPIO_Init
    lcd.o(.text) refers to _printf_percent.o(.ARM.Collect$$_printf_percent$$00000000) for _printf_percent
    lcd.o(.text) refers to _printf_x.o(.ARM.Collect$$_printf_percent$$0000000C) for _printf_x
    lcd.o(.text) refers to _printf_hex_int.o(.text) for _printf_longlong_hex
    lcd.o(.text) refers to delay.o(.text) for delay_us
    lcd.o(.text) refers to lcd.o(.bss) for lcddev
    lcd.o(.text) refers to lcd.o(.data) for POINT_COLOR
    lcd.o(.text) refers to dflt_clz.o(x$fpl$dfltu) for __aeabi_ui2d
    lcd.o(.text) refers to dmul.o(x$fpl$dmul) for __aeabi_dmul
    lcd.o(.text) refers to dfixu.o(x$fpl$dfixu) for __aeabi_d2uiz
    lcd.o(.text) refers to stm32f4xx_rcc.o(.text) for RCC_AHB1PeriphClockCmd
    lcd.o(.text) refers to stm32f4xx_gpio.o(.text) for GPIO_Init
    lcd.o(.text) refers to stm32f4xx_fsmc.o(.text) for FSMC_NORSRAMInit
    lcd.o(.text) refers to noretval__2printf.o(.text) for __2printf
    lcd.o(.text) refers to lcd.o(.constdata) for asc2_1206
    delay.o(.text) refers to os_core.o(.text) for OSSchedLock
    delay.o(.text) refers to os_time.o(.text) for OSTimeDly
    delay.o(.text) refers to misc.o(.text) for SysTick_CLKSourceConfig
    delay.o(.text) refers to os_core.o(.data) for OSRunning
    delay.o(.text) refers to delay.o(.data) for fac_us
    usart.o(.rev16_text) refers (Special) to use_no_semi_2.o(.text) for __use_no_semihosting
    usart.o(.revsh_text) refers (Special) to use_no_semi_2.o(.text) for __use_no_semihosting
    usart.o(.text) refers (Special) to use_no_semi_2.o(.text) for __use_no_semihosting
    usart.o(.text) refers to stm32f4xx_rcc.o(.text) for RCC_AHB1PeriphClockCmd
    usart.o(.text) refers to stm32f4xx_gpio.o(.text) for GPIO_PinAFConfig
    usart.o(.text) refers to stm32f4xx_usart.o(.text) for USART_Init
    usart.o(.text) refers to misc.o(.text) for NVIC_Init
    usart.o(.text) refers to os_core.o(.text) for OSIntEnter
    usart.o(.text) refers to usart.o(.data) for USART_RX_STA
    usart.o(.text) refers to usart.o(.bss) for USART_RX_BUF
    usart.o(.bss) refers (Special) to use_no_semi_2.o(.text) for __use_no_semihosting
    usart.o(.data) refers (Special) to use_no_semi_2.o(.text) for __use_no_semihosting
    startup_stm32f40_41xxx.o(STACK) refers (Special) to heapauxi.o(.text) for __use_two_region_memory
    startup_stm32f40_41xxx.o(HEAP) refers (Special) to heapauxi.o(.text) for __use_two_region_memory
    startup_stm32f40_41xxx.o(RESET) refers (Special) to heapauxi.o(.text) for __use_two_region_memory
    startup_stm32f40_41xxx.o(RESET) refers to startup_stm32f40_41xxx.o(STACK) for __initial_sp
    startup_stm32f40_41xxx.o(RESET) refers to startup_stm32f40_41xxx.o(.text) for Reset_Handler
    startup_stm32f40_41xxx.o(RESET) refers to stm32f4xx_it.o(.text) for NMI_Handler
    startup_stm32f40_41xxx.o(RESET) refers to os_cpu_a.o(.text) for PendSV_Handler
    startup_stm32f40_41xxx.o(RESET) refers to delay.o(.text) for SysTick_Handler
    startup_stm32f40_41xxx.o(RESET) refers to wiz_platform.o(.text) for TIM3_IRQHandler
    startup_stm32f40_41xxx.o(RESET) refers to usart.o(.text) for USART1_IRQHandler
    startup_stm32f40_41xxx.o(.text) refers (Special) to heapauxi.o(.text) for __use_two_region_memory
    startup_stm32f40_41xxx.o(.text) refers to system_stm32f4xx.o(.text) for SystemInit
    startup_stm32f40_41xxx.o(.text) refers to __main.o(!!!main) for __main
    startup_stm32f40_41xxx.o(.text) refers to startup_stm32f40_41xxx.o(HEAP) for Heap_Mem
    startup_stm32f40_41xxx.o(.text) refers to startup_stm32f40_41xxx.o(STACK) for Stack_Mem
    stm32f4xx_gpio.o(.text) refers to stm32f4xx_rcc.o(.text) for RCC_AHB1PeriphResetCmd
    stm32f4xx_rcc.o(.text) refers to stm32f4xx_rcc.o(.data) for APBAHBPrescTable
    stm32f4xx_syscfg.o(.text) refers to stm32f4xx_rcc.o(.text) for RCC_APB2PeriphResetCmd
    stm32f4xx_usart.o(.text) refers to stm32f4xx_rcc.o(.text) for RCC_APB2PeriphResetCmd
    stm32f4xx_spi.o(.text) refers to stm32f4xx_rcc.o(.text) for RCC_APB2PeriphResetCmd
    stm32f4xx_tim.o(.text) refers to stm32f4xx_rcc.o(.text) for RCC_APB2PeriphResetCmd
    stm32f4xx_fsmc.o(.text) refers to stm32f4xx_fsmc.o(.constdata) for FSMC_DefaultTimingStruct
    os_core.o(.text) refers to os_task.o(.text) for OSTaskStkChk
    os_core.o(.text) refers to os_time.o(.text) for OSTimeDly
    os_core.o(.text) refers to os_cpu_a.o(.text) for OS_CPU_SR_Save
    os_core.o(.text) refers to os_cpu_c.o(.text) for OSTaskStatHook
    os_core.o(.text) refers to os_flag.o(.text) for OS_FlagInit
    os_core.o(.text) refers to os_q.o(.text) for OS_QInit
    os_core.o(.text) refers to os_core.o(.bss) for OSTCBPrioTbl
    os_core.o(.text) refers to os_core.o(.data) for OSStatRdy
    os_core.o(.text) refers to os_core.o(.constdata) for OSUnMapTbl
    os_flag.o(.text) refers to os_cpu_a.o(.text) for OS_CPU_SR_Save
    os_flag.o(.text) refers to os_core.o(.text) for OS_Sched
    os_flag.o(.text) refers to os_core.o(.data) for OSIntNesting
    os_flag.o(.text) refers to os_core.o(.bss) for OSFlagTbl
    os_mbox.o(.text) refers to os_cpu_a.o(.text) for OS_CPU_SR_Save
    os_mbox.o(.text) refers to os_core.o(.text) for OS_EventWaitListInit
    os_mbox.o(.text) refers to os_core.o(.data) for OSIntNesting
    os_mutex.o(.text) refers to os_cpu_a.o(.text) for OS_CPU_SR_Save
    os_mutex.o(.text) refers to os_core.o(.text) for OS_EventWaitListInit
    os_mutex.o(.text) refers to os_core.o(.data) for OSIntNesting
    os_mutex.o(.text) refers to os_core.o(.bss) for OSTCBPrioTbl
    os_q.o(.text) refers to os_cpu_a.o(.text) for OS_CPU_SR_Save
    os_q.o(.text) refers to os_core.o(.text) for OS_EventWaitListInit
    os_q.o(.text) refers to os_core.o(.data) for OSIntNesting
    os_q.o(.text) refers to os_core.o(.bss) for OSQTbl
    os_sem.o(.text) refers to os_cpu_a.o(.text) for OS_CPU_SR_Save
    os_sem.o(.text) refers to os_core.o(.text) for OS_EventWaitListInit
    os_sem.o(.text) refers to os_core.o(.data) for OSIntNesting
    os_task.o(.text) refers to os_cpu_a.o(.text) for OS_CPU_SR_Save
    os_task.o(.text) refers to os_core.o(.text) for OS_Sched
    os_task.o(.text) refers to os_cpu_c.o(.text) for OSTaskStkInit
    os_task.o(.text) refers to os_flag.o(.text) for OS_FlagUnlink
    os_task.o(.text) refers to os_core.o(.bss) for OSTCBPrioTbl
    os_task.o(.text) refers to os_core.o(.data) for OSTCBCur
    os_time.o(.text) refers to os_cpu_a.o(.text) for OS_CPU_SR_Save
    os_time.o(.text) refers to os_core.o(.text) for OS_Sched
    os_time.o(.text) refers to os_core.o(.data) for OSIntNesting
    os_time.o(.text) refers to os_core.o(.bss) for OSTCBPrioTbl
    os_cpu_c.o(.text) refers to os_task.o(.text) for OS_TaskReturn
    os_cpu_a.o(.text) refers to os_core.o(.data) for OSRunning
    os_cpu_a.o(.text) refers to os_cpu_c.o(.text) for OSTaskSwHook
    wiz_platform.o(.text) refers to usart.o(.text) for uart_init
    wiz_platform.o(.text) refers to timer.o(.text) for TIM3_Int_Init
    wiz_platform.o(.text) refers to spi.o(.text) for SPI2_Init
    wiz_platform.o(.text) refers to stm32f4xx_rcc.o(.text) for RCC_AHB1PeriphClockCmd
    wiz_platform.o(.text) refers to stm32f4xx_gpio.o(.text) for GPIO_Init
    wiz_platform.o(.text) refers to delay.o(.text) for delay_ms
    wiz_platform.o(.text) refers to wizchip_conf.o(.text) for reg_wizchip_cs_cbfunc
    wiz_platform.o(.text) refers to stm32f4xx_tim.o(.text) for TIM_GetITStatus
    wiz_platform.o(.text) refers to dhcp.o(.text) for DHCP_time_handler
    wiz_platform.o(.text) refers to wiz_platform.o(.data) for wiz_timer_1ms_count
    wiz_interface.o(.text) refers to _printf_pad.o(.text) for _printf_pre_padding
    wiz_interface.o(.text) refers to _printf_percent.o(.ARM.Collect$$_printf_percent$$00000000) for _printf_percent
    wiz_interface.o(.text) refers to _printf_x.o(.ARM.Collect$$_printf_percent$$0000000C) for _printf_x
    wiz_interface.o(.text) refers to _printf_s.o(.ARM.Collect$$_printf_percent$$00000014) for _printf_s
    wiz_interface.o(.text) refers to _printf_hex_int.o(.text) for _printf_longlong_hex
    wiz_interface.o(.text) refers to _printf_str.o(.text) for _printf_str
    wiz_interface.o(.text) refers to _printf_d.o(.ARM.Collect$$_printf_percent$$00000009) for _printf_d
    wiz_interface.o(.text) refers to _printf_dec.o(.text) for _printf_int_dec
    wiz_interface.o(.text) refers to delay.o(.text) for delay_ms
    wiz_interface.o(.text) refers to w5500.o(.text) for WIZCHIP_READ
    wiz_interface.o(.text) refers to noretval__2printf.o(.text) for __2printf
    wiz_interface.o(.text) refers to wizchip_conf.o(.text) for ctlwizchip
    wiz_interface.o(.text) refers to wiz_platform.o(.text) for wizchip_spi_cb_reg
    wiz_interface.o(.text) refers to dhcp.o(.text) for DHCP_init
    wiz_interface.o(.text) refers to wiz_interface.o(.conststring) for .conststring
    tcp_server_multi_socket.o(.text) refers to _printf_percent.o(.ARM.Collect$$_printf_percent$$00000000) for _printf_percent
    tcp_server_multi_socket.o(.text) refers to _printf_s.o(.ARM.Collect$$_printf_percent$$00000014) for _printf_s
    tcp_server_multi_socket.o(.text) refers to _printf_str.o(.text) for _printf_str
    tcp_server_multi_socket.o(.text) refers to _printf_d.o(.ARM.Collect$$_printf_percent$$00000009) for _printf_d
    tcp_server_multi_socket.o(.text) refers to _printf_dec.o(.text) for _printf_int_dec
    tcp_server_multi_socket.o(.text) refers to w5500.o(.text) for WIZCHIP_WRITE
    tcp_server_multi_socket.o(.text) refers to wizchip_conf.o(.text) for ctlwizchip
    tcp_server_multi_socket.o(.text) refers to noretval__2printf.o(.text) for __2printf
    tcp_server_multi_socket.o(.text) refers to socket.o(.text) for close
    tcp_server_multi_socket.o(.text) refers to tcp_server_multi_socket.o(.data) for s_link_last
    loopback.o(.text) refers to _printf_percent.o(.ARM.Collect$$_printf_percent$$00000000) for _printf_percent
    loopback.o(.text) refers to _printf_d.o(.ARM.Collect$$_printf_percent$$00000009) for _printf_d
    loopback.o(.text) refers to _printf_dec.o(.text) for _printf_int_dec
    loopback.o(.text) refers to _printf_s.o(.ARM.Collect$$_printf_percent$$00000014) for _printf_s
    loopback.o(.text) refers to _printf_str.o(.text) for _printf_str
    loopback.o(.text) refers to w5500.o(.text) for WIZCHIP_READ
    loopback.o(.text) refers to noretval__2printf.o(.text) for __2printf
    loopback.o(.text) refers to socket.o(.text) for recv
    loopback.o(.text) refers to loopback.o(.data) for any_port
    socket.o(.text) refers to w5500.o(.text) for WIZCHIP_WRITE
    socket.o(.text) refers to socket.o(.data) for sock_io_mode
    socket.o(.text) refers to socket.o(.bss) for sock_remained_size
    wizchip_conf.o(.text) refers to w5500.o(.text) for WIZCHIP_READ
    wizchip_conf.o(.text) refers to wizchip_conf.o(.data) for WIZCHIP
    wizchip_conf.o(.data) refers to wizchip_conf.o(.text) for wizchip_cris_enter
    w5500.o(.text) refers to wizchip_conf.o(.data) for WIZCHIP
    dhcp.o(.text) refers to w5500.o(.text) for WIZCHIP_WRITE_BUF
    dhcp.o(.text) refers to dhcp.o(.data) for DHCP_allocated_ip
    dhcp.o(.text) refers to socket.o(.text) for sendto
    dhcp.o(.data) refers to dhcp.o(.text) for default_ip_assign
    modtcpbsp.o(.text) refers to _printf_percent.o(.ARM.Collect$$_printf_percent$$00000000) for _printf_percent
    modtcpbsp.o(.text) refers to _printf_u.o(.ARM.Collect$$_printf_percent$$0000000A) for _printf_u
    modtcpbsp.o(.text) refers to _printf_dec.o(.text) for _printf_int_dec
    modtcpbsp.o(.text) refers to _printf_s.o(.ARM.Collect$$_printf_percent$$00000014) for _printf_s
    modtcpbsp.o(.text) refers to _printf_str.o(.text) for _printf_str
    modtcpbsp.o(.text) refers to _printf_d.o(.ARM.Collect$$_printf_percent$$00000009) for _printf_d
    modtcpbsp.o(.text) refers to w5500.o(.text) for WIZCHIP_WRITE
    modtcpbsp.o(.text) refers to noretval__2printf.o(.text) for __2printf
    modtcpbsp.o(.text) refers to wizchip_conf.o(.text) for ctlwizchip
    modtcpbsp.o(.text) refers to socket.o(.text) for close
    modtcpbsp.o(.text) refers to modtcpbsp.o(.bss) for s_ctx
    modtcpbsp.o(.text) refers to modtcpbsp.o(.data) for s_ka_5s
    modtcpbsp.o(.text) refers to rt_memcpy_v6.o(.text) for __aeabi_memcpy
    mb_user_reg.o(.text) refers to porttcp.o(.text) for EnterCriticalSection
    mb_user_reg.o(.text) refers to mb_user_reg.o(.bss) for usRegHoldingBuf
    mb_user_reg.o(.text) refers to mb_user_reg.o(.data) for ucCoilsBuf
    mb.o(.text) refers to portevent.o(.text) for xMBPortEventInit
    mb.o(.text) refers to mbtcp.o(.text) for eMBTCPDoInit
    mb.o(.text) refers to porttcp.o(.text) for EnterCriticalSection
    mb.o(.text) refers to mb.o(.data) for ucMBAddress
    mb.o(.data) refers to mbfuncother.o(.text) for eMBFuncReportSlaveID
    mb.o(.data) refers to mbfuncinput.o(.text) for eMBFuncReadInputRegister
    mb.o(.data) refers to mbfuncholding.o(.text) for eMBFuncReadHoldingRegister
    mb.o(.data) refers to mbfunccoils.o(.text) for eMBFuncReadCoils
    mb.o(.data) refers to mbfuncdisc.o(.text) for eMBFuncReadDiscreteInputs
    mbfunccoils.o(.text) refers to mb_user_reg.o(.text) for eMBRegCoilsCB
    mbfunccoils.o(.text) refers to mbutils.o(.text) for prveMBError2Exception
    mbfuncdisc.o(.text) refers to mb_user_reg.o(.text) for eMBRegDiscreteCB
    mbfuncdisc.o(.text) refers to mbutils.o(.text) for prveMBError2Exception
    mbfuncholding.o(.text) refers to mb_user_reg.o(.text) for eMBRegHoldingCB
    mbfuncholding.o(.text) refers to mbutils.o(.text) for prveMBError2Exception
    mbfuncinput.o(.text) refers to mb_user_reg.o(.text) for eMBRegInputCB
    mbfuncinput.o(.text) refers to mbutils.o(.text) for prveMBError2Exception
    mbfuncother.o(.text) refers to rt_memcpy_v6.o(.text) for __aeabi_memcpy
    mbfuncother.o(.text) refers to mbfuncother.o(.data) for usMBSlaveIDLen
    mbfuncother.o(.text) refers to mbfuncother.o(.bss) for ucMBSlaveID
    mbcrc.o(.text) refers to mbcrc.o(.constdata) for aucCRCHi
    mbtcp.o(.text) refers to porttcp.o(.text) for xMBTCPPortInit
    portevent.o(.text) refers to porttcp.o(.text) for xMBPortTCPPool
    portevent.o(.text) refers to portevent.o(.data) for xEventInQueue
    porttcp.o(.text) refers to _printf_pad.o(.text) for _printf_pre_padding
    porttcp.o(.text) refers to _printf_percent.o(.ARM.Collect$$_printf_percent$$00000000) for _printf_percent
    porttcp.o(.text) refers to _printf_x.o(.ARM.Collect$$_printf_percent$$0000000C) for _printf_x
    porttcp.o(.text) refers to _printf_s.o(.ARM.Collect$$_printf_percent$$00000014) for _printf_s
    porttcp.o(.text) refers to _printf_hex_int.o(.text) for _printf_longlong_hex
    porttcp.o(.text) refers to _printf_str.o(.text) for _printf_str
    porttcp.o(.text) refers to _printf_u.o(.ARM.Collect$$_printf_percent$$0000000A) for _printf_u
    porttcp.o(.text) refers to _printf_dec.o(.text) for _printf_int_dec
    porttcp.o(.text) refers to noretval__2printf.o(.text) for __2printf
    porttcp.o(.text) refers to modtcpbsp.o(.text) for tcp_srv_peek
    porttcp.o(.text) refers to rt_memcpy_v6.o(.text) for __aeabi_memcpy
    porttcp.o(.text) refers to rt_memmove_v6.o(.text) for __aeabi_memmove
    porttcp.o(.text) refers to porttcp.o(.data) for s_acc_len
    porttcp.o(.text) refers to porttcp.o(.bss) for s_acc
    use_no_semi_2.o(.text) refers (Special) to use_no_semi.o(.text) for __use_no_semihosting_swi
    __2printf.o(.text) refers to _printf_char_file.o(.text) for _printf_char_file
    __2printf.o(.text) refers to usart.o(.data) for __stdout
    noretval__2printf.o(.text) refers to _printf_char_file.o(.text) for _printf_char_file
    noretval__2printf.o(.text) refers to usart.o(.data) for __stdout
    __printf.o(.text) refers to _printf_percent.o(.ARM.Collect$$_printf_percent$$00000000) for _printf_percent
    _printf_str.o(.text) refers (Special) to _printf_char.o(.text) for _printf_cs_common
    _printf_str.o(.text) refers (Weak) to _printf_pad.o(.text) for _printf_pre_padding
    _printf_str.o(.text) refers (Weak) to _printf_pad.o(.text) for _printf_post_padding
    _printf_dec.o(.text) refers to _printf_intcommon.o(.text) for _printf_int_common
    _printf_hex_ll.o(.text) refers to _printf_intcommon.o(.text) for _printf_int_common
    _printf_hex_ll.o(.text) refers to _printf_hex_ll.o(.constdata) for .constdata
    _printf_hex_int.o(.text) refers to _printf_intcommon.o(.text) for _printf_int_common
    _printf_hex_int.o(.text) refers to _printf_hex_int.o(.constdata) for .constdata
    _printf_hex_int_ll.o(.text) refers to _printf_intcommon.o(.text) for _printf_int_common
    _printf_hex_int_ll.o(.text) refers to _printf_hex_int_ll.o(.constdata) for .constdata
    _printf_hex_ptr.o(.text) refers to _printf_intcommon.o(.text) for _printf_int_common
    _printf_hex_ptr.o(.text) refers to _printf_hex_ptr.o(.constdata) for .constdata
    _printf_hex_int_ptr.o(.text) refers to _printf_intcommon.o(.text) for _printf_int_common
    _printf_hex_int_ptr.o(.text) refers to _printf_hex_int_ptr.o(.constdata) for .constdata
    _printf_hex_ll_ptr.o(.text) refers to _printf_intcommon.o(.text) for _printf_int_common
    _printf_hex_ll_ptr.o(.text) refers to _printf_hex_ll_ptr.o(.constdata) for .constdata
    _printf_hex_int_ll_ptr.o(.text) refers to _printf_intcommon.o(.text) for _printf_int_common
    _printf_hex_int_ll_ptr.o(.text) refers to _printf_hex_int_ll_ptr.o(.constdata) for .constdata
    __printf_flags.o(.text) refers to _printf_percent.o(.ARM.Collect$$_printf_percent$$00000000) for _printf_percent
    __printf_flags.o(.text) refers to __printf_flags.o(.constdata) for .constdata
    __printf_ss.o(.text) refers to _printf_percent.o(.ARM.Collect$$_printf_percent$$00000000) for _printf_percent
    __printf_flags_ss.o(.text) refers to _printf_percent.o(.ARM.Collect$$_printf_percent$$00000000) for _printf_percent
    __printf_flags_ss.o(.text) refers to __printf_flags_ss.o(.constdata) for .constdata
    __printf_wp.o(.text) refers to __printf_wp.o(i._is_digit) for _is_digit
    __printf_wp.o(.text) refers to _printf_percent.o(.ARM.Collect$$_printf_percent$$00000000) for _printf_percent
    __printf_flags_wp.o(.text) refers to __printf_wp.o(i._is_digit) for _is_digit
    __printf_flags_wp.o(.text) refers to _printf_percent.o(.ARM.Collect$$_printf_percent$$00000000) for _printf_percent
    __printf_flags_wp.o(.text) refers to __printf_flags_wp.o(.constdata) for .constdata
    __printf_ss_wp.o(.text) refers to __printf_wp.o(i._is_digit) for _is_digit
    __printf_ss_wp.o(.text) refers to _printf_percent.o(.ARM.Collect$$_printf_percent$$00000000) for _printf_percent
    __printf_flags_ss_wp.o(.text) refers to __printf_wp.o(i._is_digit) for _is_digit
    __printf_flags_ss_wp.o(.text) refers to _printf_percent.o(.ARM.Collect$$_printf_percent$$00000000) for _printf_percent
    __printf_flags_ss_wp.o(.text) refers to __printf_flags_ss_wp.o(.constdata) for .constdata
    _printf_s.o(.ARM.Collect$$_printf_percent$$00000014) refers (Weak) to _printf_char.o(.text) for _printf_string
    _printf_x.o(.ARM.Collect$$_printf_percent$$0000000C) refers (Weak) to _printf_hex_int.o(.text) for _printf_int_hex
    _printf_d.o(.ARM.Collect$$_printf_percent$$00000009) refers (Weak) to _printf_dec.o(.text) for _printf_int_dec
    _printf_u.o(.ARM.Collect$$_printf_percent$$0000000A) refers (Weak) to _printf_dec.o(.text) for _printf_int_dec
    _printf_percent.o(.ARM.Collect$$_printf_percent$$00000000) refers (Special) to _printf_percent_end.o(.ARM.Collect$$_printf_percent$$00000017) for _printf_percent_end
    rt_memcpy_v6.o(.text) refers to rt_memcpy_w.o(.text) for __aeabi_memcpy4
    rt_memmove_v6.o(.text) refers to rt_memcpy_v6.o(.text) for __aeabi_memcpy
    rt_memmove_v6.o(.text) refers to rt_memmove_w.o(.text) for __memmove_aligned
    __main.o(!!!main) refers to __rtentry.o(.ARM.Collect$$rtentry$$00000000) for __rt_entry
    dfixu.o(x$fpl$dfixu) refers (Special) to usenofp.o(x$fpl$usenofp) for __I$use$fp
    dfixu.o(x$fpl$dfixu) refers to dnaninf.o(x$fpl$dnaninf) for __fpl_dnaninf
    dfixu.o(x$fpl$dfixur) refers (Special) to usenofp.o(x$fpl$usenofp) for __I$use$fp
    dfixu.o(x$fpl$dfixur) refers to dnaninf.o(x$fpl$dnaninf) for __fpl_dnaninf
    dflt_clz.o(x$fpl$dfltu) refers (Special) to usenofp.o(x$fpl$usenofp) for __I$use$fp
    dflt_clz.o(x$fpl$dflt) refers (Special) to usenofp.o(x$fpl$usenofp) for __I$use$fp
    dflt_clz.o(x$fpl$dfltn) refers (Special) to usenofp.o(x$fpl$usenofp) for __I$use$fp
    dmul.o(x$fpl$dmul) refers (Special) to usenofp.o(x$fpl$usenofp) for __I$use$fp
    dmul.o(x$fpl$dmul) refers to dretinf.o(x$fpl$dretinf) for __fpl_dretinf
    dmul.o(x$fpl$dmul) refers to dnaninf.o(x$fpl$dnaninf) for __fpl_dnaninf
    __rtentry.o(.ARM.Collect$$rtentry$$00000000) refers (Special) to __rtentry2.o(.ARM.Collect$$rtentry$$0000000A) for __rt_entry_li
    __rtentry.o(.ARM.Collect$$rtentry$$00000000) refers (Special) to __rtentry2.o(.ARM.Collect$$rtentry$$0000000D) for __rt_entry_main
    __rtentry.o(.ARM.Collect$$rtentry$$00000000) refers (Special) to __rtentry2.o(.ARM.Collect$$rtentry$$0000000C) for __rt_entry_postli_1
    __rtentry.o(.ARM.Collect$$rtentry$$00000000) refers (Special) to __rtentry2.o(.ARM.Collect$$rtentry$$00000009) for __rt_entry_postsh_1
    __rtentry.o(.ARM.Collect$$rtentry$$00000000) refers (Special) to __rtentry2.o(.ARM.Collect$$rtentry$$00000002) for __rt_entry_presh_1
    __rtentry.o(.ARM.Collect$$rtentry$$00000000) refers (Special) to __rtentry4.o(.ARM.Collect$$rtentry$$00000004) for __rt_entry_sh
    _printf_intcommon.o(.text) refers (Weak) to _printf_pad.o(.text) for _printf_pre_padding
    _printf_intcommon.o(.text) refers (Weak) to _printf_pad.o(.text) for _printf_pre_padding
    _printf_intcommon.o(.text) refers (Weak) to _printf_pad.o(.text) for _printf_post_padding
    _printf_char.o(.text) refers (Weak) to _printf_str.o(.text) for _printf_str
    _printf_char_file.o(.text) refers to _printf_char_common.o(.text) for _printf_char_common
    _printf_char_file.o(.text) refers to ferror.o(.text) for ferror
    _printf_char_file.o(.text) refers to usart.o(.text) for fputc
    rt_memmove_w.o(.text) refers to rt_memcpy_w.o(.text) for __aeabi_memcpy4
    dnaninf.o(x$fpl$dnaninf) refers (Special) to usenofp.o(x$fpl$usenofp) for __I$use$fp
    dretinf.o(x$fpl$dretinf) refers (Special) to usenofp.o(x$fpl$usenofp) for __I$use$fp
    __rtentry2.o(.ARM.Collect$$rtentry$$00000008) refers to boardinit2.o(.text) for _platform_post_stackheap_init
    __rtentry2.o(.ARM.Collect$$rtentry$$0000000A) refers to libinit.o(.ARM.Collect$$libinit$$00000000) for __rt_lib_init
    __rtentry2.o(.ARM.Collect$$rtentry$$0000000B) refers to boardinit3.o(.text) for _platform_post_lib_init
    __rtentry2.o(.ARM.Collect$$rtentry$$0000000D) refers to main.o(.text) for main
    __rtentry2.o(.ARM.Collect$$rtentry$$0000000D) refers to exit.o(.text) for exit
    __rtentry2.o(.ARM.exidx) refers to __rtentry2.o(.ARM.Collect$$rtentry$$00000001) for .ARM.Collect$$rtentry$$00000001
    __rtentry2.o(.ARM.exidx) refers to __rtentry2.o(.ARM.Collect$$rtentry$$00000008) for .ARM.Collect$$rtentry$$00000008
    __rtentry2.o(.ARM.exidx) refers to __rtentry2.o(.ARM.Collect$$rtentry$$0000000A) for .ARM.Collect$$rtentry$$0000000A
    __rtentry2.o(.ARM.exidx) refers to __rtentry2.o(.ARM.Collect$$rtentry$$0000000B) for .ARM.Collect$$rtentry$$0000000B
    __rtentry2.o(.ARM.exidx) refers to __rtentry2.o(.ARM.Collect$$rtentry$$0000000D) for .ARM.Collect$$rtentry$$0000000D
    __rtentry4.o(.ARM.Collect$$rtentry$$00000004) refers to sys_stackheap_outer.o(.text) for __user_setup_stackheap
    __rtentry4.o(.ARM.exidx) refers to __rtentry4.o(.ARM.Collect$$rtentry$$00000004) for .ARM.Collect$$rtentry$$00000004
    _printf_char_common.o(.text) refers to __printf_flags_ss_wp.o(.text) for __printf
    sys_stackheap_outer.o(.text) refers to libspace.o(.text) for __user_perproc_libspace
    sys_stackheap_outer.o(.text) refers to startup_stm32f40_41xxx.o(.text) for __user_initial_stackheap
    exit.o(.text) refers to rtexit.o(.ARM.Collect$$rtexit$$00000000) for __rt_exit
    libinit.o(.ARM.Collect$$libinit$$00000000) refers (Special) to libinit2.o(.ARM.Collect$$libinit$$0000002E) for __rt_lib_init_alloca_1
    libinit.o(.ARM.Collect$$libinit$$00000000) refers (Special) to libinit2.o(.ARM.Collect$$libinit$$0000002C) for __rt_lib_init_argv_1
    libinit.o(.ARM.Collect$$libinit$$00000000) refers (Special) to libinit2.o(.ARM.Collect$$libinit$$0000001B) for __rt_lib_init_atexit_1
    libinit.o(.ARM.Collect$$libinit$$00000000) refers (Special) to libinit2.o(.ARM.Collect$$libinit$$00000021) for __rt_lib_init_clock_1
    libinit.o(.ARM.Collect$$libinit$$00000000) refers (Special) to libinit2.o(.ARM.Collect$$libinit$$00000032) for __rt_lib_init_cpp_1
    libinit.o(.ARM.Collect$$libinit$$00000000) refers (Special) to libinit2.o(.ARM.Collect$$libinit$$00000030) for __rt_lib_init_exceptions_1
    libinit.o(.ARM.Collect$$libinit$$00000000) refers (Special) to libinit2.o(.ARM.Collect$$libinit$$00000001) for __rt_lib_init_fp_1
    libinit.o(.ARM.Collect$$libinit$$00000000) refers (Special) to libinit2.o(.ARM.Collect$$libinit$$0000001F) for __rt_lib_init_fp_trap_1
    libinit.o(.ARM.Collect$$libinit$$00000000) refers (Special) to libinit2.o(.ARM.Collect$$libinit$$00000023) for __rt_lib_init_getenv_1
    libinit.o(.ARM.Collect$$libinit$$00000000) refers (Special) to libinit2.o(.ARM.Collect$$libinit$$0000000A) for __rt_lib_init_heap_1
    libinit.o(.ARM.Collect$$libinit$$00000000) refers (Special) to libinit2.o(.ARM.Collect$$libinit$$00000011) for __rt_lib_init_lc_collate_1
    libinit.o(.ARM.Collect$$libinit$$00000000) refers (Special) to libinit2.o(.ARM.Collect$$libinit$$00000013) for __rt_lib_init_lc_ctype_1
    libinit.o(.ARM.Collect$$libinit$$00000000) refers (Special) to libinit2.o(.ARM.Collect$$libinit$$00000015) for __rt_lib_init_lc_monetary_1
    libinit.o(.ARM.Collect$$libinit$$00000000) refers (Special) to libinit2.o(.ARM.Collect$$libinit$$00000017) for __rt_lib_init_lc_numeric_1
    libinit.o(.ARM.Collect$$libinit$$00000000) refers (Special) to libinit2.o(.ARM.Collect$$libinit$$00000019) for __rt_lib_init_lc_time_1
    libinit.o(.ARM.Collect$$libinit$$00000000) refers (Special) to libinit2.o(.ARM.Collect$$libinit$$00000004) for __rt_lib_init_preinit_1
    libinit.o(.ARM.Collect$$libinit$$00000000) refers (Special) to libinit2.o(.ARM.Collect$$libinit$$0000000E) for __rt_lib_init_rand_1
    libinit.o(.ARM.Collect$$libinit$$00000000) refers (Special) to libinit2.o(.ARM.Collect$$libinit$$00000033) for __rt_lib_init_return
    libinit.o(.ARM.Collect$$libinit$$00000000) refers (Special) to libinit2.o(.ARM.Collect$$libinit$$0000001D) for __rt_lib_init_signal_1
    libinit.o(.ARM.Collect$$libinit$$00000000) refers (Special) to libinit2.o(.ARM.Collect$$libinit$$00000025) for __rt_lib_init_stdio_1
    libinit.o(.ARM.Collect$$libinit$$00000000) refers (Special) to libinit2.o(.ARM.Collect$$libinit$$0000000C) for __rt_lib_init_user_alloc_1
    libspace.o(.text) refers to libspace.o(.bss) for __libspace_start
    rtexit.o(.ARM.Collect$$rtexit$$00000000) refers (Special) to rtexit2.o(.ARM.Collect$$rtexit$$00000004) for __rt_exit_exit
    rtexit.o(.ARM.Collect$$rtexit$$00000000) refers (Special) to rtexit2.o(.ARM.Collect$$rtexit$$00000003) for __rt_exit_ls
    rtexit.o(.ARM.Collect$$rtexit$$00000000) refers (Special) to rtexit2.o(.ARM.Collect$$rtexit$$00000002) for __rt_exit_prels_1
    rtexit.o(.ARM.exidx) refers (Special) to rtexit2.o(.ARM.Collect$$rtexit$$00000004) for __rt_exit_exit
    rtexit.o(.ARM.exidx) refers (Special) to rtexit2.o(.ARM.Collect$$rtexit$$00000003) for __rt_exit_ls
    rtexit.o(.ARM.exidx) refers (Special) to rtexit2.o(.ARM.Collect$$rtexit$$00000002) for __rt_exit_prels_1
    rtexit.o(.ARM.exidx) refers to rtexit.o(.ARM.Collect$$rtexit$$00000000) for .ARM.Collect$$rtexit$$00000000
    libinit2.o(.ARM.Collect$$libinit$$00000001) refers to fpinit.o(x$fpl$fpinit) for _fp_init
    libinit2.o(.ARM.Collect$$libinit$$00000010) refers to libinit2.o(.ARM.Collect$$libinit$$0000000F) for .ARM.Collect$$libinit$$0000000F
    libinit2.o(.ARM.Collect$$libinit$$00000012) refers to libinit2.o(.ARM.Collect$$libinit$$0000000F) for .ARM.Collect$$libinit$$0000000F
    libinit2.o(.ARM.Collect$$libinit$$00000014) refers to libinit2.o(.ARM.Collect$$libinit$$0000000F) for .ARM.Collect$$libinit$$0000000F
    libinit2.o(.ARM.Collect$$libinit$$00000016) refers to libinit2.o(.ARM.Collect$$libinit$$0000000F) for .ARM.Collect$$libinit$$0000000F
    libinit2.o(.ARM.Collect$$libinit$$00000018) refers to libinit2.o(.ARM.Collect$$libinit$$0000000F) for .ARM.Collect$$libinit$$0000000F
    libinit2.o(.ARM.Collect$$libinit$$00000026) refers to argv_veneer.o(.emb_text) for __ARM_argv_veneer
    libinit2.o(.ARM.Collect$$libinit$$00000027) refers to argv_veneer.o(.emb_text) for __ARM_argv_veneer
    rtexit2.o(.ARM.Collect$$rtexit$$00000003) refers to libshutdown.o(.ARM.Collect$$libshutdown$$00000000) for __rt_lib_shutdown
    rtexit2.o(.ARM.Collect$$rtexit$$00000004) refers to usart.o(.text) for _sys_exit
    rtexit2.o(.ARM.exidx) refers to rtexit2.o(.ARM.Collect$$rtexit$$00000001) for .ARM.Collect$$rtexit$$00000001
    rtexit2.o(.ARM.exidx) refers to rtexit2.o(.ARM.Collect$$rtexit$$00000003) for .ARM.Collect$$rtexit$$00000003
    rtexit2.o(.ARM.exidx) refers to rtexit2.o(.ARM.Collect$$rtexit$$00000004) for .ARM.Collect$$rtexit$$00000004
    argv_veneer.o(.emb_text) refers to no_argv.o(.text) for __ARM_get_argv
    _get_argv_nomalloc.o(.text) refers (Special) to hrguard.o(.text) for __heap_region$guard
    _get_argv_nomalloc.o(.text) refers to defsig_rtmem_outer.o(.text) for __rt_SIGRTMEM
    _get_argv_nomalloc.o(.text) refers to sys_command.o(.text) for _sys_command_string
    libshutdown.o(.ARM.Collect$$libshutdown$$00000000) refers (Special) to libshutdown2.o(.ARM.Collect$$libshutdown$$00000002) for __rt_lib_shutdown_cpp_1
    libshutdown.o(.ARM.Collect$$libshutdown$$00000000) refers (Special) to libshutdown2.o(.ARM.Collect$$libshutdown$$00000007) for __rt_lib_shutdown_fp_trap_1
    libshutdown.o(.ARM.Collect$$libshutdown$$00000000) refers (Special) to libshutdown2.o(.ARM.Collect$$libshutdown$$0000000F) for __rt_lib_shutdown_heap_1
    libshutdown.o(.ARM.Collect$$libshutdown$$00000000) refers (Special) to libshutdown2.o(.ARM.Collect$$libshutdown$$00000010) for __rt_lib_shutdown_return
    libshutdown.o(.ARM.Collect$$libshutdown$$00000000) refers (Special) to libshutdown2.o(.ARM.Collect$$libshutdown$$0000000A) for __rt_lib_shutdown_signal_1
    libshutdown.o(.ARM.Collect$$libshutdown$$00000000) refers (Special) to libshutdown2.o(.ARM.Collect$$libshutdown$$00000004) for __rt_lib_shutdown_stdio_1
    libshutdown.o(.ARM.Collect$$libshutdown$$00000000) refers (Special) to libshutdown2.o(.ARM.Collect$$libshutdown$$0000000C) for __rt_lib_shutdown_user_alloc_1
    sys_command.o(.text) refers (Special) to use_no_semi.o(.text) for __I$use$semihosting
    sys_command.o(.text) refers (Special) to indicate_semi.o(.text) for __semihosting_library_function
    defsig_rtmem_outer.o(.text) refers to defsig_rtmem_inner.o(.text) for __rt_SIGRTMEM_inner
    defsig_rtmem_outer.o(.text) refers to defsig_exit.o(.text) for __sig_exit
    defsig_rtmem_formal.o(.text) refers to rt_raise.o(.text) for __rt_raise
    rt_raise.o(.text) refers to __raise.o(.text) for __raise
    rt_raise.o(.text) refers to usart.o(.text) for _sys_exit
    defsig_exit.o(.text) refers to usart.o(.text) for _sys_exit
    defsig_rtmem_inner.o(.text) refers to defsig_general.o(.text) for __default_signal_display
    __raise.o(.text) refers to defsig.o(CL$$defsig) for __default_signal_handler
    defsig_general.o(.text) refers to sys_wrch.o(.text) for _ttywrch
    sys_wrch.o(.text) refers (Special) to use_no_semi.o(.text) for __I$use$semihosting
    sys_wrch.o(.text) refers (Special) to indicate_semi.o(.text) for __semihosting_library_function
    defsig.o(CL$$defsig) refers to defsig_rtmem_inner.o(.text) for __rt_SIGRTMEM_inner
    defsig_abrt_inner.o(.text) refers to defsig_general.o(.text) for __default_signal_display
    defsig_fpe_inner.o(.text) refers to defsig_general.o(.text) for __default_signal_display
    defsig_rtred_inner.o(.text) refers to defsig_general.o(.text) for __default_signal_display
    defsig_stak_inner.o(.text) refers to defsig_general.o(.text) for __default_signal_display
    defsig_pvfn_inner.o(.text) refers to defsig_general.o(.text) for __default_signal_display
    defsig_cppl_inner.o(.text) refers to defsig_general.o(.text) for __default_signal_display
    defsig_segv_inner.o(.text) refers to defsig_general.o(.text) for __default_signal_display
    defsig_other.o(.text) refers to defsig_general.o(.text) for __default_signal_display


==============================================================================

Removing Unused input sections from the image.

    Removing main.o(.rev16_text), (4 bytes).
    Removing main.o(.revsh_text), (4 bytes).
    Removing stm32f4xx_it.o(.rev16_text), (4 bytes).
    Removing stm32f4xx_it.o(.revsh_text), (4 bytes).
    Removing system_stm32f4xx.o(.rev16_text), (4 bytes).
    Removing system_stm32f4xx.o(.revsh_text), (4 bytes).
    Removing task_tcp.o(.rev16_text), (4 bytes).
    Removing task_tcp.o(.revsh_text), (4 bytes).
    Removing led.o(.rev16_text), (4 bytes).
    Removing led.o(.revsh_text), (4 bytes).
    Removing timer.o(.rev16_text), (4 bytes).
    Removing timer.o(.revsh_text), (4 bytes).
    Removing spi.o(.rev16_text), (4 bytes).
    Removing spi.o(.revsh_text), (4 bytes).
    Removing lcd.o(.rev16_text), (4 bytes).
    Removing lcd.o(.revsh_text), (4 bytes).
    Removing lcd.o(.text), (19584 bytes).
    Removing lcd.o(.bss), (14 bytes).
    Removing lcd.o(.constdata), (6080 bytes).
    Removing lcd.o(.data), (4 bytes).
    Removing delay.o(.rev16_text), (4 bytes).
    Removing delay.o(.revsh_text), (4 bytes).
    Removing sys.o(.rev16_text), (4 bytes).
    Removing sys.o(.revsh_text), (4 bytes).
    Removing sys.o(.emb_text), (16 bytes).
    Removing usart.o(.rev16_text), (4 bytes).
    Removing usart.o(.revsh_text), (4 bytes).
    Removing misc.o(.rev16_text), (4 bytes).
    Removing misc.o(.revsh_text), (4 bytes).
    Removing stm32f4xx_gpio.o(.rev16_text), (4 bytes).
    Removing stm32f4xx_gpio.o(.revsh_text), (4 bytes).
    Removing stm32f4xx_rcc.o(.rev16_text), (4 bytes).
    Removing stm32f4xx_rcc.o(.revsh_text), (4 bytes).
    Removing stm32f4xx_syscfg.o(.rev16_text), (4 bytes).
    Removing stm32f4xx_syscfg.o(.revsh_text), (4 bytes).
    Removing stm32f4xx_syscfg.o(.text), (148 bytes).
    Removing stm32f4xx_usart.o(.rev16_text), (4 bytes).
    Removing stm32f4xx_usart.o(.revsh_text), (4 bytes).
    Removing stm32f4xx_dma.o(.rev16_text), (4 bytes).
    Removing stm32f4xx_dma.o(.revsh_text), (4 bytes).
    Removing stm32f4xx_dma.o(.text), (936 bytes).
    Removing stm32f4xx_spi.o(.rev16_text), (4 bytes).
    Removing stm32f4xx_spi.o(.revsh_text), (4 bytes).
    Removing stm32f4xx_tim.o(.rev16_text), (4 bytes).
    Removing stm32f4xx_tim.o(.revsh_text), (4 bytes).
    Removing stm32f4xx_fsmc.o(.rev16_text), (4 bytes).
    Removing stm32f4xx_fsmc.o(.revsh_text), (4 bytes).
    Removing stm32f4xx_fsmc.o(.text), (1480 bytes).
    Removing stm32f4xx_fsmc.o(.constdata), (28 bytes).
    Removing os_core.o(.rev16_text), (4 bytes).
    Removing os_core.o(.revsh_text), (4 bytes).
    Removing os_flag.o(.rev16_text), (4 bytes).
    Removing os_flag.o(.revsh_text), (4 bytes).
    Removing os_mbox.o(.rev16_text), (4 bytes).
    Removing os_mbox.o(.revsh_text), (4 bytes).
    Removing os_mbox.o(.text), (972 bytes).
    Removing os_mem.o(.rev16_text), (4 bytes).
    Removing os_mem.o(.revsh_text), (4 bytes).
    Removing os_mutex.o(.rev16_text), (4 bytes).
    Removing os_mutex.o(.revsh_text), (4 bytes).
    Removing os_mutex.o(.text), (1536 bytes).
    Removing os_q.o(.rev16_text), (4 bytes).
    Removing os_q.o(.revsh_text), (4 bytes).
    Removing os_sem.o(.rev16_text), (4 bytes).
    Removing os_sem.o(.revsh_text), (4 bytes).
    Removing os_sem.o(.text), (908 bytes).
    Removing os_task.o(.rev16_text), (4 bytes).
    Removing os_task.o(.revsh_text), (4 bytes).
    Removing os_time.o(.rev16_text), (4 bytes).
    Removing os_time.o(.revsh_text), (4 bytes).
    Removing os_tmr.o(.rev16_text), (4 bytes).
    Removing os_tmr.o(.revsh_text), (4 bytes).
    Removing os_cpu_c.o(.rev16_text), (4 bytes).
    Removing os_cpu_c.o(.revsh_text), (4 bytes).
    Removing os_cpu_c.o(.data), (4 bytes).
    Removing wiz_platform.o(.rev16_text), (4 bytes).
    Removing wiz_platform.o(.revsh_text), (4 bytes).
    Removing wiz_interface.o(.rev16_text), (4 bytes).
    Removing wiz_interface.o(.revsh_text), (4 bytes).
    Removing tcp_server_multi_socket.o(.rev16_text), (4 bytes).
    Removing tcp_server_multi_socket.o(.revsh_text), (4 bytes).
    Removing tcp_server_multi_socket.o(.text), (1216 bytes).
    Removing tcp_server_multi_socket.o(.data), (7 bytes).
    Removing loopback.o(.text), (1584 bytes).
    Removing loopback.o(.data), (2 bytes).
    Removing modtcpbsp.o(.rev16_text), (4 bytes).
    Removing modtcpbsp.o(.revsh_text), (4 bytes).
    Removing mb_user_reg.o(.rev16_text), (4 bytes).
    Removing mb_user_reg.o(.revsh_text), (4 bytes).
    Removing mb.o(.rev16_text), (4 bytes).
    Removing mb.o(.revsh_text), (4 bytes).
    Removing mbascii.o(.rev16_text), (4 bytes).
    Removing mbascii.o(.revsh_text), (4 bytes).
    Removing mbfunccoils.o(.rev16_text), (4 bytes).
    Removing mbfunccoils.o(.revsh_text), (4 bytes).
    Removing mbfuncdisc.o(.rev16_text), (4 bytes).
    Removing mbfuncdisc.o(.revsh_text), (4 bytes).
    Removing mbfuncfile.o(.rev16_text), (4 bytes).
    Removing mbfuncfile.o(.revsh_text), (4 bytes).
    Removing mbfuncholding.o(.rev16_text), (4 bytes).
    Removing mbfuncholding.o(.revsh_text), (4 bytes).
    Removing mbfuncinput.o(.rev16_text), (4 bytes).
    Removing mbfuncinput.o(.revsh_text), (4 bytes).
    Removing mbfuncother.o(.rev16_text), (4 bytes).
    Removing mbfuncother.o(.revsh_text), (4 bytes).
    Removing mbutils.o(.rev16_text), (4 bytes).
    Removing mbutils.o(.revsh_text), (4 bytes).
    Removing mbcrc.o(.rev16_text), (4 bytes).
    Removing mbcrc.o(.revsh_text), (4 bytes).
    Removing mbcrc.o(.text), (56 bytes).
    Removing mbcrc.o(.constdata), (512 bytes).
    Removing mbtcp.o(.rev16_text), (4 bytes).
    Removing mbtcp.o(.revsh_text), (4 bytes).
    Removing portevent.o(.rev16_text), (4 bytes).
    Removing portevent.o(.revsh_text), (4 bytes).
    Removing porttcp.o(.rev16_text), (4 bytes).
    Removing porttcp.o(.revsh_text), (4 bytes).

117 unused section(s) (total 35479 bytes) removed from the image.

==============================================================================

Image Symbol Table

    Local Symbols

    Symbol Name                              Value     Ov Type        Size  Object(Section)

    ../clib/angel/boardlib.s                 0x00000000   Number         0  boardinit2.o ABSOLUTE
    ../clib/angel/boardlib.s                 0x00000000   Number         0  boardinit1.o ABSOLUTE
    ../clib/angel/boardlib.s                 0x00000000   Number         0  boardshut.o ABSOLUTE
    ../clib/angel/boardlib.s                 0x00000000   Number         0  boardinit3.o ABSOLUTE
    ../clib/angel/dczerorl2.s                0x00000000   Number         0  __dczerorl2.o ABSOLUTE
    ../clib/angel/handlers.s                 0x00000000   Number         0  __scatter_zi.o ABSOLUTE
    ../clib/angel/kernel.s                   0x00000000   Number         0  rtexit2.o ABSOLUTE
    ../clib/angel/kernel.s                   0x00000000   Number         0  __rtentry4.o ABSOLUTE
    ../clib/angel/kernel.s                   0x00000000   Number         0  __rtentry2.o ABSOLUTE
    ../clib/angel/kernel.s                   0x00000000   Number         0  rtexit.o ABSOLUTE
    ../clib/angel/kernel.s                   0x00000000   Number         0  __rtentry.o ABSOLUTE
    ../clib/angel/rt.s                       0x00000000   Number         0  rt_raise.o ABSOLUTE
    ../clib/angel/scatter.s                  0x00000000   Number         0  __scatter.o ABSOLUTE
    ../clib/angel/startup.s                  0x00000000   Number         0  __main.o ABSOLUTE
    ../clib/angel/sys.s                      0x00000000   Number         0  use_no_semi_2.o ABSOLUTE
    ../clib/angel/sys.s                      0x00000000   Number         0  sys_stackheap_outer.o ABSOLUTE
    ../clib/angel/sys.s                      0x00000000   Number         0  indicate_semi.o ABSOLUTE
    ../clib/angel/sys.s                      0x00000000   Number         0  libspace.o ABSOLUTE
    ../clib/angel/sys.s                      0x00000000   Number         0  use_no_semi.o ABSOLUTE
    ../clib/angel/sysapp.c                   0x00000000   Number         0  sys_wrch.o ABSOLUTE
    ../clib/angel/sysapp.c                   0x00000000   Number         0  sys_command.o ABSOLUTE
    ../clib/armsys.c                         0x00000000   Number         0  no_argv.o ABSOLUTE
    ../clib/armsys.c                         0x00000000   Number         0  _get_argv_nomalloc.o ABSOLUTE
    ../clib/armsys.c                         0x00000000   Number         0  argv_veneer.o ABSOLUTE
    ../clib/armsys.c                         0x00000000   Number         0  argv_veneer.o ABSOLUTE
    ../clib/heapalloc.c                      0x00000000   Number         0  hrguard.o ABSOLUTE
    ../clib/heapaux.c                        0x00000000   Number         0  heapauxi.o ABSOLUTE
    ../clib/libinit.s                        0x00000000   Number         0  libshutdown2.o ABSOLUTE
    ../clib/libinit.s                        0x00000000   Number         0  libshutdown.o ABSOLUTE
    ../clib/libinit.s                        0x00000000   Number         0  libinit2.o ABSOLUTE
    ../clib/libinit.s                        0x00000000   Number         0  libinit.o ABSOLUTE
    ../clib/memcpset.s                       0x00000000   Number         0  rt_memcpy_w.o ABSOLUTE
    ../clib/memcpset.s                       0x00000000   Number         0  rt_memmove_v6.o ABSOLUTE
    ../clib/memcpset.s                       0x00000000   Number         0  rt_memcpy_v6.o ABSOLUTE
    ../clib/memcpset.s                       0x00000000   Number         0  rt_memmove_w.o ABSOLUTE
    ../clib/misc.s                           0x00000000   Number         0  printf_stubs.o ABSOLUTE
    ../clib/printf.c                         0x00000000   Number         0  noretval__2printf.o ABSOLUTE
    ../clib/printf.c                         0x00000000   Number         0  __2printf.o ABSOLUTE
    ../clib/printf.c                         0x00000000   Number         0  _printf_hex_ll_ptr.o ABSOLUTE
    ../clib/printf.c                         0x00000000   Number         0  _printf_char_file.o ABSOLUTE
    ../clib/printf.c                         0x00000000   Number         0  _printf_char.o ABSOLUTE
    ../clib/printf.c                         0x00000000   Number         0  _printf_intcommon.o ABSOLUTE
    ../clib/printf.c                         0x00000000   Number         0  __printf_flags_ss_wp.o ABSOLUTE
    ../clib/printf.c                         0x00000000   Number         0  __printf_ss_wp.o ABSOLUTE
    ../clib/printf.c                         0x00000000   Number         0  __printf_flags_wp.o ABSOLUTE
    ../clib/printf.c                         0x00000000   Number         0  __printf_wp.o ABSOLUTE
    ../clib/printf.c                         0x00000000   Number         0  __printf_flags_ss.o ABSOLUTE
    ../clib/printf.c                         0x00000000   Number         0  __printf_ss.o ABSOLUTE
    ../clib/printf.c                         0x00000000   Number         0  __printf_flags.o ABSOLUTE
    ../clib/printf.c                         0x00000000   Number         0  _printf_hex_int_ll_ptr.o ABSOLUTE
    ../clib/printf.c                         0x00000000   Number         0  _printf_hex_int_ptr.o ABSOLUTE
    ../clib/printf.c                         0x00000000   Number         0  _printf_hex_ptr.o ABSOLUTE
    ../clib/printf.c                         0x00000000   Number         0  _printf_hex_int_ll.o ABSOLUTE
    ../clib/printf.c                         0x00000000   Number         0  _printf_hex_int.o ABSOLUTE
    ../clib/printf.c                         0x00000000   Number         0  __printf_nopercent.o ABSOLUTE
    ../clib/printf.c                         0x00000000   Number         0  _printf_hex_ll.o ABSOLUTE
    ../clib/printf.c                         0x00000000   Number         0  _printf_dec.o ABSOLUTE
    ../clib/printf.c                         0x00000000   Number         0  _printf_char_common.o ABSOLUTE
    ../clib/printf.c                         0x00000000   Number         0  _printf_str.o ABSOLUTE
    ../clib/printf.c                         0x00000000   Number         0  _printf_pad.o ABSOLUTE
    ../clib/printf.c                         0x00000000   Number         0  __printf.o ABSOLUTE
    ../clib/printf_percent.s                 0x00000000   Number         0  _printf_percent_end.o ABSOLUTE
    ../clib/printf_percent.s                 0x00000000   Number         0  _printf_percent.o ABSOLUTE
    ../clib/printf_percent.s                 0x00000000   Number         0  _printf_s.o ABSOLUTE
    ../clib/printf_percent.s                 0x00000000   Number         0  _printf_x.o ABSOLUTE
    ../clib/printf_percent.s                 0x00000000   Number         0  _printf_d.o ABSOLUTE
    ../clib/printf_percent.s                 0x00000000   Number         0  _printf_u.o ABSOLUTE
    ../clib/signal.c                         0x00000000   Number         0  defsig_cppl_inner.o ABSOLUTE
    ../clib/signal.c                         0x00000000   Number         0  __raise.o ABSOLUTE
    ../clib/signal.c                         0x00000000   Number         0  defsig_rtmem_inner.o ABSOLUTE
    ../clib/signal.c                         0x00000000   Number         0  defsig_segv_inner.o ABSOLUTE
    ../clib/signal.c                         0x00000000   Number         0  defsig_exit.o ABSOLUTE
    ../clib/signal.c                         0x00000000   Number         0  defsig_other.o ABSOLUTE
    ../clib/signal.c                         0x00000000   Number         0  defsig_rtmem_formal.o ABSOLUTE
    ../clib/signal.c                         0x00000000   Number         0  defsig_rtmem_outer.o ABSOLUTE
    ../clib/signal.c                         0x00000000   Number         0  defsig_general.o ABSOLUTE
    ../clib/signal.c                         0x00000000   Number         0  defsig_abrt_inner.o ABSOLUTE
    ../clib/signal.c                         0x00000000   Number         0  defsig_fpe_inner.o ABSOLUTE
    ../clib/signal.c                         0x00000000   Number         0  defsig_rtred_inner.o ABSOLUTE
    ../clib/signal.c                         0x00000000   Number         0  defsig_stak_inner.o ABSOLUTE
    ../clib/signal.c                         0x00000000   Number         0  defsig_pvfn_inner.o ABSOLUTE
    ../clib/signal.s                         0x00000000   Number         0  defsig.o ABSOLUTE
    ../clib/stdio.c                          0x00000000   Number         0  ferror_locked.o ABSOLUTE
    ../clib/stdio.c                          0x00000000   Number         0  ferror.o ABSOLUTE
    ../clib/stdlib.c                         0x00000000   Number         0  exit.o ABSOLUTE
    ../fplib/dfixu.s                         0x00000000   Number         0  dfixu.o ABSOLUTE
    ../fplib/dflt.s                          0x00000000   Number         0  dflt_clz.o ABSOLUTE
    ../fplib/dmul.s                          0x00000000   Number         0  dmul.o ABSOLUTE
    ../fplib/dnaninf.s                       0x00000000   Number         0  dnaninf.o ABSOLUTE
    ../fplib/dretinf.s                       0x00000000   Number         0  dretinf.o ABSOLUTE
    ../fplib/fpinit.s                        0x00000000   Number         0  fpinit.o ABSOLUTE
    ../fplib/usenofp.s                       0x00000000   Number         0  usenofp.o ABSOLUTE
    ..\CORE\startup_stm32f40_41xxx.s         0x00000000   Number         0  startup_stm32f40_41xxx.o ABSOLUTE
    ..\FWLIB\src\misc.c                      0x00000000   Number         0  misc.o ABSOLUTE
    ..\FWLIB\src\stm32f4xx_dma.c             0x00000000   Number         0  stm32f4xx_dma.o ABSOLUTE
    ..\FWLIB\src\stm32f4xx_fsmc.c            0x00000000   Number         0  stm32f4xx_fsmc.o ABSOLUTE
    ..\FWLIB\src\stm32f4xx_gpio.c            0x00000000   Number         0  stm32f4xx_gpio.o ABSOLUTE
    ..\FWLIB\src\stm32f4xx_rcc.c             0x00000000   Number         0  stm32f4xx_rcc.o ABSOLUTE
    ..\FWLIB\src\stm32f4xx_spi.c             0x00000000   Number         0  stm32f4xx_spi.o ABSOLUTE
    ..\FWLIB\src\stm32f4xx_syscfg.c          0x00000000   Number         0  stm32f4xx_syscfg.o ABSOLUTE
    ..\FWLIB\src\stm32f4xx_tim.c             0x00000000   Number         0  stm32f4xx_tim.o ABSOLUTE
    ..\FWLIB\src\stm32f4xx_usart.c           0x00000000   Number         0  stm32f4xx_usart.o ABSOLUTE
    ..\HARDWARE\LCD\lcd.c                    0x00000000   Number         0  lcd.o ABSOLUTE
    ..\HARDWARE\LED\led.c                    0x00000000   Number         0  led.o ABSOLUTE
    ..\HARDWARE\MOD_TCP_BSP\mb_user_reg.c    0x00000000   Number         0  mb_user_reg.o ABSOLUTE
    ..\HARDWARE\MOD_TCP_BSP\modtcpbsp.c      0x00000000   Number         0  modtcpbsp.o ABSOLUTE
    ..\HARDWARE\SPI\spi.c                    0x00000000   Number         0  spi.o ABSOLUTE
    ..\HARDWARE\TIMER\timer.c                0x00000000   Number         0  timer.o ABSOLUTE
    ..\HARDWARE\tcp_server_multi_socket\tcp_server_multi_socket.c 0x00000000   Number         0  tcp_server_multi_socket.o ABSOLUTE
    ..\HARDWARE\wiz_interface\wiz_interface.c 0x00000000   Number         0  wiz_interface.o ABSOLUTE
    ..\HARDWARE\wiz_platform\wiz_platform.c  0x00000000   Number         0  wiz_platform.o ABSOLUTE
    ..\SYSTEM\delay\delay.c                  0x00000000   Number         0  delay.o ABSOLUTE
    ..\SYSTEM\sys\sys.c                      0x00000000   Number         0  sys.o ABSOLUTE
    ..\SYSTEM\usart\usart.c                  0x00000000   Number         0  usart.o ABSOLUTE
    ..\UCOSII\CORE\os_core.c                 0x00000000   Number         0  os_core.o ABSOLUTE
    ..\UCOSII\CORE\os_flag.c                 0x00000000   Number         0  os_flag.o ABSOLUTE
    ..\UCOSII\CORE\os_mbox.c                 0x00000000   Number         0  os_mbox.o ABSOLUTE
    ..\UCOSII\CORE\os_mem.c                  0x00000000   Number         0  os_mem.o ABSOLUTE
    ..\UCOSII\CORE\os_mutex.c                0x00000000   Number         0  os_mutex.o ABSOLUTE
    ..\UCOSII\CORE\os_q.c                    0x00000000   Number         0  os_q.o ABSOLUTE
    ..\UCOSII\CORE\os_sem.c                  0x00000000   Number         0  os_sem.o ABSOLUTE
    ..\UCOSII\CORE\os_task.c                 0x00000000   Number         0  os_task.o ABSOLUTE
    ..\UCOSII\CORE\os_time.c                 0x00000000   Number         0  os_time.o ABSOLUTE
    ..\UCOSII\CORE\os_tmr.c                  0x00000000   Number         0  os_tmr.o ABSOLUTE
    ..\UCOSII\PORT\os_cpu_a.asm              0x00000000   Number         0  os_cpu_a.o ABSOLUTE
    ..\UCOSII\PORT\os_cpu_c.c                0x00000000   Number         0  os_cpu_c.o ABSOLUTE
    ..\\FWLIB\\src\\misc.c                   0x00000000   Number         0  misc.o ABSOLUTE
    ..\\FWLIB\\src\\stm32f4xx_dma.c          0x00000000   Number         0  stm32f4xx_dma.o ABSOLUTE
    ..\\FWLIB\\src\\stm32f4xx_fsmc.c         0x00000000   Number         0  stm32f4xx_fsmc.o ABSOLUTE
    ..\\FWLIB\\src\\stm32f4xx_gpio.c         0x00000000   Number         0  stm32f4xx_gpio.o ABSOLUTE
    ..\\FWLIB\\src\\stm32f4xx_rcc.c          0x00000000   Number         0  stm32f4xx_rcc.o ABSOLUTE
    ..\\FWLIB\\src\\stm32f4xx_spi.c          0x00000000   Number         0  stm32f4xx_spi.o ABSOLUTE
    ..\\FWLIB\\src\\stm32f4xx_syscfg.c       0x00000000   Number         0  stm32f4xx_syscfg.o ABSOLUTE
    ..\\FWLIB\\src\\stm32f4xx_tim.c          0x00000000   Number         0  stm32f4xx_tim.o ABSOLUTE
    ..\\FWLIB\\src\\stm32f4xx_usart.c        0x00000000   Number         0  stm32f4xx_usart.o ABSOLUTE
    ..\\HARDWARE\\LCD\\lcd.c                 0x00000000   Number         0  lcd.o ABSOLUTE
    ..\\HARDWARE\\LED\\led.c                 0x00000000   Number         0  led.o ABSOLUTE
    ..\\HARDWARE\\MOD_TCP_BSP\\mb_user_reg.c 0x00000000   Number         0  mb_user_reg.o ABSOLUTE
    ..\\HARDWARE\\MOD_TCP_BSP\\modtcpbsp.c   0x00000000   Number         0  modtcpbsp.o ABSOLUTE
    ..\\HARDWARE\\SPI\\spi.c                 0x00000000   Number         0  spi.o ABSOLUTE
    ..\\HARDWARE\\TIMER\\timer.c             0x00000000   Number         0  timer.o ABSOLUTE
    ..\\HARDWARE\\tcp_server_multi_socket\\tcp_server_multi_socket.c 0x00000000   Number         0  tcp_server_multi_socket.o ABSOLUTE
    ..\\HARDWARE\\wiz_interface\\wiz_interface.c 0x00000000   Number         0  wiz_interface.o ABSOLUTE
    ..\\HARDWARE\\wiz_platform\\wiz_platform.c 0x00000000   Number         0  wiz_platform.o ABSOLUTE
    ..\\SYSTEM\\delay\\delay.c               0x00000000   Number         0  delay.o ABSOLUTE
    ..\\SYSTEM\\sys\\sys.c                   0x00000000   Number         0  sys.o ABSOLUTE
    ..\\SYSTEM\\usart\\usart.c               0x00000000   Number         0  usart.o ABSOLUTE
    ..\\UCOSII\\CORE\\os_core.c              0x00000000   Number         0  os_core.o ABSOLUTE
    ..\\UCOSII\\CORE\\os_flag.c              0x00000000   Number         0  os_flag.o ABSOLUTE
    ..\\UCOSII\\CORE\\os_mbox.c              0x00000000   Number         0  os_mbox.o ABSOLUTE
    ..\\UCOSII\\CORE\\os_mem.c               0x00000000   Number         0  os_mem.o ABSOLUTE
    ..\\UCOSII\\CORE\\os_mutex.c             0x00000000   Number         0  os_mutex.o ABSOLUTE
    ..\\UCOSII\\CORE\\os_q.c                 0x00000000   Number         0  os_q.o ABSOLUTE
    ..\\UCOSII\\CORE\\os_sem.c               0x00000000   Number         0  os_sem.o ABSOLUTE
    ..\\UCOSII\\CORE\\os_task.c              0x00000000   Number         0  os_task.o ABSOLUTE
    ..\\UCOSII\\CORE\\os_time.c              0x00000000   Number         0  os_time.o ABSOLUTE
    ..\\UCOSII\\CORE\\os_tmr.c               0x00000000   Number         0  os_tmr.o ABSOLUTE
    ..\\UCOSII\\PORT\\os_cpu_c.c             0x00000000   Number         0  os_cpu_c.o ABSOLUTE
    ..\\modbus\\ascii\\mbascii.c             0x00000000   Number         0  mbascii.o ABSOLUTE
    ..\\modbus\\functions\\mbfunccoils.c     0x00000000   Number         0  mbfunccoils.o ABSOLUTE
    ..\\modbus\\functions\\mbfuncdisc.c      0x00000000   Number         0  mbfuncdisc.o ABSOLUTE
    ..\\modbus\\functions\\mbfuncfile.c      0x00000000   Number         0  mbfuncfile.o ABSOLUTE
    ..\\modbus\\functions\\mbfuncholding.c   0x00000000   Number         0  mbfuncholding.o ABSOLUTE
    ..\\modbus\\functions\\mbfuncinput.c     0x00000000   Number         0  mbfuncinput.o ABSOLUTE
    ..\\modbus\\functions\\mbfuncother.c     0x00000000   Number         0  mbfuncother.o ABSOLUTE
    ..\\modbus\\functions\\mbutils.c         0x00000000   Number         0  mbutils.o ABSOLUTE
    ..\\modbus\\mb.c                         0x00000000   Number         0  mb.o ABSOLUTE
    ..\\modbus\\port\\portevent.c            0x00000000   Number         0  portevent.o ABSOLUTE
    ..\\modbus\\port\\porttcp.c              0x00000000   Number         0  porttcp.o ABSOLUTE
    ..\\modbus\\rtu\\mbcrc.c                 0x00000000   Number         0  mbcrc.o ABSOLUTE
    ..\\modbus\\tcp\\mbtcp.c                 0x00000000   Number         0  mbtcp.o ABSOLUTE
    ..\ioLibrary_Driver\Application\loopback\loopback.c 0x00000000   Number         0  loopback.o ABSOLUTE
    ..\ioLibrary_Driver\Ethernet\W5500\w5500.c 0x00000000   Number         0  w5500.o ABSOLUTE
    ..\ioLibrary_Driver\Ethernet\socket.c    0x00000000   Number         0  socket.o ABSOLUTE
    ..\ioLibrary_Driver\Ethernet\wizchip_conf.c 0x00000000   Number         0  wizchip_conf.o ABSOLUTE
    ..\ioLibrary_Driver\Internet\DHCP\dhcp.c 0x00000000   Number         0  dhcp.o ABSOLUTE
    ..\modbus\ascii\mbascii.c                0x00000000   Number         0  mbascii.o ABSOLUTE
    ..\modbus\functions\mbfunccoils.c        0x00000000   Number         0  mbfunccoils.o ABSOLUTE
    ..\modbus\functions\mbfuncdiag.c         0x00000000   Number         0  mbfuncdiag.o ABSOLUTE
    ..\modbus\functions\mbfuncdisc.c         0x00000000   Number         0  mbfuncdisc.o ABSOLUTE
    ..\modbus\functions\mbfuncfile.c         0x00000000   Number         0  mbfuncfile.o ABSOLUTE
    ..\modbus\functions\mbfuncholding.c      0x00000000   Number         0  mbfuncholding.o ABSOLUTE
    ..\modbus\functions\mbfuncinput.c        0x00000000   Number         0  mbfuncinput.o ABSOLUTE
    ..\modbus\functions\mbfuncother.c        0x00000000   Number         0  mbfuncother.o ABSOLUTE
    ..\modbus\functions\mbutils.c            0x00000000   Number         0  mbutils.o ABSOLUTE
    ..\modbus\mb.c                           0x00000000   Number         0  mb.o ABSOLUTE
    ..\modbus\port\portevent.c               0x00000000   Number         0  portevent.o ABSOLUTE
    ..\modbus\port\porttcp.c                 0x00000000   Number         0  porttcp.o ABSOLUTE
    ..\modbus\rtu\mbcrc.c                    0x00000000   Number         0  mbcrc.o ABSOLUTE
    ..\modbus\tcp\mbtcp.c                    0x00000000   Number         0  mbtcp.o ABSOLUTE
    dc.s                                     0x00000000   Number         0  dc.o ABSOLUTE
    main.c                                   0x00000000   Number         0  main.o ABSOLUTE
    main.c                                   0x00000000   Number         0  main.o ABSOLUTE
    stm32f4xx_it.c                           0x00000000   Number         0  stm32f4xx_it.o ABSOLUTE
    stm32f4xx_it.c                           0x00000000   Number         0  stm32f4xx_it.o ABSOLUTE
    system_stm32f4xx.c                       0x00000000   Number         0  system_stm32f4xx.o ABSOLUTE
    system_stm32f4xx.c                       0x00000000   Number         0  system_stm32f4xx.o ABSOLUTE
    task_tcp.c                               0x00000000   Number         0  task_tcp.o ABSOLUTE
    task_tcp.c                               0x00000000   Number         0  task_tcp.o ABSOLUTE
    RESET                                    0x08000000   Section      392  startup_stm32f40_41xxx.o(RESET)
    !!!main                                  0x08000188   Section        8  __main.o(!!!main)
    !!!scatter                               0x08000190   Section       52  __scatter.o(!!!scatter)
    !!dczerorl2                              0x080001c4   Section       90  __dczerorl2.o(!!dczerorl2)
    !!handler_zi                             0x08000220   Section       28  __scatter_zi.o(!!handler_zi)
    .ARM.Collect$$_printf_percent$$00000000  0x0800023c   Section        0  _printf_percent.o(.ARM.Collect$$_printf_percent$$00000000)
    .ARM.Collect$$_printf_percent$$00000009  0x0800023c   Section        6  _printf_d.o(.ARM.Collect$$_printf_percent$$00000009)
    .ARM.Collect$$_printf_percent$$0000000A  0x08000242   Section        6  _printf_u.o(.ARM.Collect$$_printf_percent$$0000000A)
    .ARM.Collect$$_printf_percent$$0000000C  0x08000248   Section        6  _printf_x.o(.ARM.Collect$$_printf_percent$$0000000C)
    .ARM.Collect$$_printf_percent$$00000014  0x0800024e   Section        6  _printf_s.o(.ARM.Collect$$_printf_percent$$00000014)
    .ARM.Collect$$_printf_percent$$00000017  0x08000254   Section        4  _printf_percent_end.o(.ARM.Collect$$_printf_percent$$00000017)
    .ARM.Collect$$libinit$$00000000          0x08000258   Section        2  libinit.o(.ARM.Collect$$libinit$$00000000)
    .ARM.Collect$$libinit$$00000001          0x0800025a   Section        4  libinit2.o(.ARM.Collect$$libinit$$00000001)
    .ARM.Collect$$libinit$$00000004          0x0800025e   Section        0  libinit2.o(.ARM.Collect$$libinit$$00000004)
    .ARM.Collect$$libinit$$0000000A          0x0800025e   Section        0  libinit2.o(.ARM.Collect$$libinit$$0000000A)
    .ARM.Collect$$libinit$$0000000C          0x0800025e   Section        0  libinit2.o(.ARM.Collect$$libinit$$0000000C)
    .ARM.Collect$$libinit$$0000000E          0x0800025e   Section        0  libinit2.o(.ARM.Collect$$libinit$$0000000E)
    .ARM.Collect$$libinit$$00000011          0x0800025e   Section        0  libinit2.o(.ARM.Collect$$libinit$$00000011)
    .ARM.Collect$$libinit$$00000013          0x0800025e   Section        0  libinit2.o(.ARM.Collect$$libinit$$00000013)
    .ARM.Collect$$libinit$$00000015          0x0800025e   Section        0  libinit2.o(.ARM.Collect$$libinit$$00000015)
    .ARM.Collect$$libinit$$00000017          0x0800025e   Section        0  libinit2.o(.ARM.Collect$$libinit$$00000017)
    .ARM.Collect$$libinit$$00000019          0x0800025e   Section        0  libinit2.o(.ARM.Collect$$libinit$$00000019)
    .ARM.Collect$$libinit$$0000001B          0x0800025e   Section        0  libinit2.o(.ARM.Collect$$libinit$$0000001B)
    .ARM.Collect$$libinit$$0000001D          0x0800025e   Section        0  libinit2.o(.ARM.Collect$$libinit$$0000001D)
    .ARM.Collect$$libinit$$0000001F          0x0800025e   Section        0  libinit2.o(.ARM.Collect$$libinit$$0000001F)
    .ARM.Collect$$libinit$$00000021          0x0800025e   Section        0  libinit2.o(.ARM.Collect$$libinit$$00000021)
    .ARM.Collect$$libinit$$00000023          0x0800025e   Section        0  libinit2.o(.ARM.Collect$$libinit$$00000023)
    .ARM.Collect$$libinit$$00000025          0x0800025e   Section        0  libinit2.o(.ARM.Collect$$libinit$$00000025)
    .ARM.Collect$$libinit$$0000002C          0x0800025e   Section        0  libinit2.o(.ARM.Collect$$libinit$$0000002C)
    .ARM.Collect$$libinit$$0000002E          0x0800025e   Section        0  libinit2.o(.ARM.Collect$$libinit$$0000002E)
    .ARM.Collect$$libinit$$00000030          0x0800025e   Section        0  libinit2.o(.ARM.Collect$$libinit$$00000030)
    .ARM.Collect$$libinit$$00000032          0x0800025e   Section        0  libinit2.o(.ARM.Collect$$libinit$$00000032)
    .ARM.Collect$$libinit$$00000033          0x0800025e   Section        2  libinit2.o(.ARM.Collect$$libinit$$00000033)
    .ARM.Collect$$libshutdown$$00000000      0x08000260   Section        2  libshutdown.o(.ARM.Collect$$libshutdown$$00000000)
    .ARM.Collect$$libshutdown$$00000002      0x08000262   Section        0  libshutdown2.o(.ARM.Collect$$libshutdown$$00000002)
    .ARM.Collect$$libshutdown$$00000004      0x08000262   Section        0  libshutdown2.o(.ARM.Collect$$libshutdown$$00000004)
    .ARM.Collect$$libshutdown$$00000007      0x08000262   Section        0  libshutdown2.o(.ARM.Collect$$libshutdown$$00000007)
    .ARM.Collect$$libshutdown$$0000000A      0x08000262   Section        0  libshutdown2.o(.ARM.Collect$$libshutdown$$0000000A)
    .ARM.Collect$$libshutdown$$0000000C      0x08000262   Section        0  libshutdown2.o(.ARM.Collect$$libshutdown$$0000000C)
    .ARM.Collect$$libshutdown$$0000000F      0x08000262   Section        0  libshutdown2.o(.ARM.Collect$$libshutdown$$0000000F)
    .ARM.Collect$$libshutdown$$00000010      0x08000262   Section        2  libshutdown2.o(.ARM.Collect$$libshutdown$$00000010)
    .ARM.Collect$$rtentry$$00000000          0x08000264   Section        0  __rtentry.o(.ARM.Collect$$rtentry$$00000000)
    .ARM.Collect$$rtentry$$00000002          0x08000264   Section        0  __rtentry2.o(.ARM.Collect$$rtentry$$00000002)
    .ARM.Collect$$rtentry$$00000004          0x08000264   Section        6  __rtentry4.o(.ARM.Collect$$rtentry$$00000004)
    .ARM.Collect$$rtentry$$00000009          0x0800026a   Section        0  __rtentry2.o(.ARM.Collect$$rtentry$$00000009)
    .ARM.Collect$$rtentry$$0000000A          0x0800026a   Section        4  __rtentry2.o(.ARM.Collect$$rtentry$$0000000A)
    .ARM.Collect$$rtentry$$0000000C          0x0800026e   Section        0  __rtentry2.o(.ARM.Collect$$rtentry$$0000000C)
    .ARM.Collect$$rtentry$$0000000D          0x0800026e   Section        8  __rtentry2.o(.ARM.Collect$$rtentry$$0000000D)
    .ARM.Collect$$rtexit$$00000000           0x08000276   Section        2  rtexit.o(.ARM.Collect$$rtexit$$00000000)
    .ARM.Collect$$rtexit$$00000002           0x08000278   Section        0  rtexit2.o(.ARM.Collect$$rtexit$$00000002)
    .ARM.Collect$$rtexit$$00000003           0x08000278   Section        4  rtexit2.o(.ARM.Collect$$rtexit$$00000003)
    .ARM.Collect$$rtexit$$00000004           0x0800027c   Section        6  rtexit2.o(.ARM.Collect$$rtexit$$00000004)
    .text                                    0x08000284   Section        0  main.o(.text)
    .text                                    0x08000304   Section        0  stm32f4xx_it.o(.text)
    .text                                    0x0800031c   Section        0  system_stm32f4xx.o(.text)
    SetSysClock                              0x0800031d   Thumb Code   220  system_stm32f4xx.o(.text)
    .text                                    0x0800052c   Section        0  task_tcp.o(.text)
    .text                                    0x080008c0   Section        0  led.o(.text)
    .text                                    0x08000900   Section        0  timer.o(.text)
    .text                                    0x0800095c   Section        0  spi.o(.text)
    .text                                    0x08000b9c   Section        0  delay.o(.text)
    .text                                    0x08000cc4   Section        0  usart.o(.text)
    .text                                    0x08000e18   Section       64  startup_stm32f40_41xxx.o(.text)
    $v0                                      0x08000e18   Number         0  startup_stm32f40_41xxx.o(.text)
    .text                                    0x08000e58   Section        0  misc.o(.text)
    .text                                    0x08000f38   Section        0  stm32f4xx_gpio.o(.text)
    .text                                    0x080011cc   Section        0  stm32f4xx_rcc.o(.text)
    .text                                    0x08001828   Section        0  stm32f4xx_usart.o(.text)
    .text                                    0x08001c7c   Section        0  stm32f4xx_spi.o(.text)
    .text                                    0x080020fc   Section        0  stm32f4xx_tim.o(.text)
    TI4_Config                               0x0800289b   Thumb Code    80  stm32f4xx_tim.o(.text)
    TI3_Config                               0x080028fd   Thumb Code    72  stm32f4xx_tim.o(.text)
    TI2_Config                               0x0800295f   Thumb Code    90  stm32f4xx_tim.o(.text)
    TI1_Config                               0x080029cb   Thumb Code    58  stm32f4xx_tim.o(.text)
    .text                                    0x08002da0   Section        0  os_core.o(.text)
    OS_InitTaskStat                          0x08002e4b   Thumb Code    52  os_core.o(.text)
    OS_InitTaskIdle                          0x08002ea1   Thumb Code    52  os_core.o(.text)
    OS_InitEventList                         0x08002ee7   Thumb Code    74  os_core.o(.text)
    OS_InitTCBList                           0x08002f31   Thumb Code   106  os_core.o(.text)
    OS_InitRdyList                           0x08002f9b   Thumb Code    44  os_core.o(.text)
    OS_InitMisc                              0x08002fc7   Thumb Code    44  os_core.o(.text)
    OS_SchedNew                              0x0800303b   Thumb Code    26  os_core.o(.text)
    .text                                    0x08003630   Section        0  os_flag.o(.text)
    OS_FlagTaskRdy                           0x080037a7   Thumb Code    82  os_flag.o(.text)
    OS_FlagBlock                             0x08003961   Thumb Code   152  os_flag.o(.text)
    .text                                    0x08003e3c   Section        0  os_q.o(.text)
    .text                                    0x08004424   Section        0  os_task.o(.text)
    .text                                    0x08004be8   Section        0  os_time.o(.text)
    .text                                    0x08004d98   Section        0  os_cpu_c.o(.text)
    .text                                    0x08004f5c   Section      200  os_cpu_a.o(.text)
    $v0                                      0x08004f5c   Number         0  os_cpu_a.o(.text)
    .text                                    0x08005024   Section        0  wiz_platform.o(.text)
    .text                                    0x080051ec   Section        0  wiz_interface.o(.text)
    wiz_dhcp_process                         0x08005373   Thumb Code   146  wiz_interface.o(.text)
    .text                                    0x080055ec   Section        0  socket.o(.text)
    .text                                    0x080066b8   Section        0  wizchip_conf.o(.text)
    .text                                    0x08006d94   Section        0  w5500.o(.text)
    .text                                    0x080071d0   Section        0  dhcp.o(.text)
    .text                                    0x0800838c   Section        0  modtcpbsp.o(.text)
    apply_keepalive                          0x0800838d   Thumb Code    94  modtcpbsp.o(.text)
    monitor_phy                              0x080083eb   Thumb Code   188  modtcpbsp.o(.text)
    .text                                    0x08008ca0   Section        0  mb_user_reg.o(.text)
    .text                                    0x080091f4   Section        0  mb.o(.text)
    .text                                    0x080094d0   Section        0  mbfunccoils.o(.text)
    .text                                    0x0800967e   Section        0  mbfuncdisc.o(.text)
    .text                                    0x0800972a   Section        0  mbfuncholding.o(.text)
    .text                                    0x0800993c   Section        0  mbfuncinput.o(.text)
    .text                                    0x080099c8   Section        0  mbfuncother.o(.text)
    .text                                    0x08009a5c   Section        0  mbutils.o(.text)
    .text                                    0x08009b08   Section        0  mbtcp.o(.text)
    .text                                    0x08009ba0   Section        0  portevent.o(.text)
    .text                                    0x08009be8   Section        0  porttcp.o(.text)
    mbap_ok_and_total                        0x08009be9   Thumb Code    82  porttcp.o(.text)
    pump_tcp_to_acc                          0x08009c3b   Thumb Code   254  porttcp.o(.text)
    try_extract_frames                       0x08009d39   Thumb Code   330  porttcp.o(.text)
    .text                                    0x0800a070   Section        2  use_no_semi_2.o(.text)
    .text                                    0x0800a074   Section        0  noretval__2printf.o(.text)
    .text                                    0x0800a08c   Section        0  _printf_pad.o(.text)
    .text                                    0x0800a0da   Section        0  _printf_str.o(.text)
    .text                                    0x0800a12c   Section        0  _printf_dec.o(.text)
    .text                                    0x0800a1a4   Section        0  _printf_hex_int.o(.text)
    .text                                    0x0800a1fc   Section        0  __printf_flags_ss_wp.o(.text)
    .text                                    0x0800a384   Section      138  rt_memcpy_v6.o(.text)
    .text                                    0x0800a40e   Section      132  rt_memmove_v6.o(.text)
    .text                                    0x0800a492   Section        0  heapauxi.o(.text)
    .text                                    0x0800a498   Section        2  use_no_semi.o(.text)
    .text                                    0x0800a49a   Section        0  _printf_intcommon.o(.text)
    .text                                    0x0800a54c   Section        0  _printf_char.o(.text)
    .text                                    0x0800a578   Section        0  _printf_char_file.o(.text)
    .text                                    0x0800a59c   Section      100  rt_memcpy_w.o(.text)
    .text                                    0x0800a600   Section      122  rt_memmove_w.o(.text)
    .text                                    0x0800a67c   Section        0  _printf_char_common.o(.text)
    _printf_input_char                       0x0800a67d   Thumb Code    10  _printf_char_common.o(.text)
    .text                                    0x0800a6ac   Section        0  ferror.o(.text)
    .text                                    0x0800a6b4   Section       74  sys_stackheap_outer.o(.text)
    .text                                    0x0800a6fe   Section        0  exit.o(.text)
    .text                                    0x0800a710   Section        8  libspace.o(.text)
    i._is_digit                              0x0800a718   Section        0  __printf_wp.o(i._is_digit)
    x$fpl$fpinit                             0x0800a726   Section       10  fpinit.o(x$fpl$fpinit)
    $v0                                      0x0800a726   Number         0  fpinit.o(x$fpl$fpinit)
    .constdata                               0x0800a730   Section      256  os_core.o(.constdata)
    .constdata                               0x0800a830   Section       40  _printf_hex_int.o(.constdata)
    uc_hextab                                0x0800a830   Data          20  _printf_hex_int.o(.constdata)
    lc_hextab                                0x0800a844   Data          20  _printf_hex_int.o(.constdata)
    .constdata                               0x0800a858   Section       17  __printf_flags_ss_wp.o(.constdata)
    maptable                                 0x0800a858   Data          17  __printf_flags_ss_wp.o(.constdata)
    .conststring                             0x0800a86c   Section      278  wiz_interface.o(.conststring)
    .data                                    0x20000000   Section       20  system_stm32f4xx.o(.data)
    .data                                    0x20000014   Section       36  task_tcp.o(.data)
    last_debug_time                          0x20000030   Data           4  task_tcp.o(.data)
    poll_count                               0x20000034   Data           4  task_tcp.o(.data)
    .data                                    0x20000038   Section        4  delay.o(.data)
    fac_us                                   0x20000038   Data           1  delay.o(.data)
    fac_ms                                   0x2000003a   Data           2  delay.o(.data)
    .data                                    0x2000003c   Section        6  usart.o(.data)
    .data                                    0x20000042   Section       16  stm32f4xx_rcc.o(.data)
    APBAHBPrescTable                         0x20000042   Data          16  stm32f4xx_rcc.o(.data)
    .data                                    0x20000054   Section       72  os_core.o(.data)
    .data                                    0x2000009c   Section        4  wiz_platform.o(.data)
    wiz_timer_1ms_count                      0x2000009c   Data           4  wiz_platform.o(.data)
    .data                                    0x200000a0   Section       14  socket.o(.data)
    sock_any_port                            0x200000a0   Data           2  socket.o(.data)
    sock_io_mode                             0x200000a2   Data           2  socket.o(.data)
    sock_is_sending                          0x200000a4   Data           2  socket.o(.data)
    .data                                    0x200000b0   Section       49  wizchip_conf.o(.data)
    _DNS_                                    0x200000dc   Data           4  wizchip_conf.o(.data)
    _DHCP_                                   0x200000e0   Data           1  wizchip_conf.o(.data)
    .data                                    0x200000e4   Section       80  dhcp.o(.data)
    .data                                    0x20000134   Section        4  modtcpbsp.o(.data)
    s_port                                   0x20000134   Data           2  modtcpbsp.o(.data)
    s_link_last                              0x20000136   Data           1  modtcpbsp.o(.data)
    s_ka_5s                                  0x20000137   Data           1  modtcpbsp.o(.data)
    .data                                    0x20000138   Section       16  mb_user_reg.o(.data)
    ucCoilsBuf                               0x20000138   Data           8  mb_user_reg.o(.data)
    ucDiscBuf                                0x20000140   Data           8  mb_user_reg.o(.data)
    .data                                    0x20000148   Section      181  mb.o(.data)
    ucMBAddress                              0x20000148   Data           1  mb.o(.data)
    eMBCurrentMode                           0x20000149   Data           1  mb.o(.data)
    eMBState                                 0x2000014a   Data           1  mb.o(.data)
    peMBFrameSendCur                         0x2000014c   Data           4  mb.o(.data)
    pvMBFrameStartCur                        0x20000150   Data           4  mb.o(.data)
    pvMBFrameStopCur                         0x20000154   Data           4  mb.o(.data)
    peMBFrameReceiveCur                      0x20000158   Data           4  mb.o(.data)
    pvMBFrameCloseCur                        0x2000015c   Data           4  mb.o(.data)
    xFuncHandlers                            0x20000174   Data         128  mb.o(.data)
    ucMBFrame                                0x200001f4   Data           4  mb.o(.data)
    ucRcvAddress                             0x200001f8   Data           1  mb.o(.data)
    ucFunctionCode                           0x200001f9   Data           1  mb.o(.data)
    usLength                                 0x200001fa   Data           2  mb.o(.data)
    eException                               0x200001fc   Data           1  mb.o(.data)
    .data                                    0x200001fe   Section        2  mbfuncother.o(.data)
    usMBSlaveIDLen                           0x200001fe   Data           2  mbfuncother.o(.data)
    .data                                    0x20000200   Section        2  portevent.o(.data)
    eQueuedEvent                             0x20000200   Data           1  portevent.o(.data)
    xEventInQueue                            0x20000201   Data           1  portevent.o(.data)
    .data                                    0x20000202   Section       12  porttcp.o(.data)
    usTCPBufLen                              0x20000202   Data           2  porttcp.o(.data)
    s_frame_ready                            0x20000204   Data           1  porttcp.o(.data)
    s_frame_sock                             0x20000205   Data           1  porttcp.o(.data)
    s_acc_len                                0x20000206   Data           8  porttcp.o(.data)
    .bss                                     0x20000210   Section      256  main.o(.bss)
    .bss                                     0x20000310   Section     2820  task_tcp.o(.bss)
    rxbuf                                    0x20000d10   Data         260  task_tcp.o(.bss)
    .bss                                     0x20000e14   Section      200  usart.o(.bss)
    .bss                                     0x20000edc   Section     2688  os_core.o(.bss)
    .bss                                     0x2000195c   Section       16  socket.o(.bss)
    sock_remained_size                       0x2000195c   Data          16  socket.o(.bss)
    .bss                                     0x2000196c   Section     1056  modtcpbsp.o(.bss)
    s_ctx                                    0x2000196c   Data        1056  modtcpbsp.o(.bss)
    .bss                                     0x20001d8c   Section      400  mb_user_reg.o(.bss)
    usRegHoldingBuf                          0x20001d8c   Data         200  mb_user_reg.o(.bss)
    usRegInputBuf                            0x20001e54   Data         200  mb_user_reg.o(.bss)
    .bss                                     0x20001f1c   Section       32  mbfuncother.o(.bss)
    ucMBSlaveID                              0x20001f1c   Data          32  mbfuncother.o(.bss)
    .bss                                     0x20001f3c   Section     1820  porttcp.o(.bss)
    ucTCPBuf                                 0x20001f3c   Data         260  porttcp.o(.bss)
    s_acc                                    0x20002040   Data        1560  porttcp.o(.bss)
    .bss                                     0x20002658   Section       96  libspace.o(.bss)
    HEAP                                     0x200026b8   Section      512  startup_stm32f40_41xxx.o(HEAP)
    Heap_Mem                                 0x200026b8   Data         512  startup_stm32f40_41xxx.o(HEAP)
    STACK                                    0x200028b8   Section     1024  startup_stm32f40_41xxx.o(STACK)
    Stack_Mem                                0x200028b8   Data        1024  startup_stm32f40_41xxx.o(STACK)
    __initial_sp                             0x20002cb8   Data           0  startup_stm32f40_41xxx.o(STACK)

    Global Symbols

    Symbol Name                              Value     Ov Type        Size  Object(Section)

    BuildAttributes$$THM_ISAv4$E$P$D$K$B$S$7EM$VFPi3$EXTD16$VFPS$VFMA$PE$A:L22UL41UL21$X:L11$S22US41US21$IEEE1$IW$USESV6$~STKCKD$USESV7$~SHL$OSPACE$ROPI$EBA8$UX$STANDARDLIB$REQ8$PRES8$EABIv2 0x00000000   Number         0  anon$$obj.o ABSOLUTE
    __ARM_use_no_argv                        0x00000000   Number         0  main.o ABSOLUTE
    _printf_flags                            0x00000000   Number         0  printf_stubs.o ABSOLUTE
    _printf_return_value                     0x00000000   Number         0  printf_stubs.o ABSOLUTE
    _printf_sizespec                         0x00000000   Number         0  printf_stubs.o ABSOLUTE
    _printf_widthprec                        0x00000000   Number         0  printf_stubs.o ABSOLUTE
    __ARM_exceptions_init                     - Undefined Weak Reference
    __alloca_initialize                       - Undefined Weak Reference
    __arm_preinit_                            - Undefined Weak Reference
    __cpp_initialize__aeabi_                  - Undefined Weak Reference
    __cxa_finalize                            - Undefined Weak Reference
    __rt_locale                               - Undefined Weak Reference
    __sigvec_lookup                           - Undefined Weak Reference
    _atexit_init                              - Undefined Weak Reference
    _call_atexit_fns                          - Undefined Weak Reference
    _clock_init                               - Undefined Weak Reference
    _fp_trap_init                             - Undefined Weak Reference
    _fp_trap_shutdown                         - Undefined Weak Reference
    _get_lc_collate                           - Undefined Weak Reference
    _get_lc_ctype                             - Undefined Weak Reference
    _get_lc_monetary                          - Undefined Weak Reference
    _get_lc_numeric                           - Undefined Weak Reference
    _get_lc_time                              - Undefined Weak Reference
    _getenv_init                              - Undefined Weak Reference
    _handle_redirection                       - Undefined Weak Reference
    _init_alloc                               - Undefined Weak Reference
    _init_user_alloc                          - Undefined Weak Reference
    _initio                                   - Undefined Weak Reference
    _mutex_acquire                            - Undefined Weak Reference
    _mutex_release                            - Undefined Weak Reference
    _printf_mbtowc                            - Undefined Weak Reference
    _printf_truncate_signed                   - Undefined Weak Reference
    _printf_truncate_unsigned                 - Undefined Weak Reference
    _rand_init                                - Undefined Weak Reference
    _signal_finish                            - Undefined Weak Reference
    _signal_init                              - Undefined Weak Reference
    _terminate_alloc                          - Undefined Weak Reference
    _terminate_user_alloc                     - Undefined Weak Reference
    _terminateio                              - Undefined Weak Reference
    __Vectors_Size                           0x00000188   Number         0  startup_stm32f40_41xxx.o ABSOLUTE
    __Vectors                                0x08000000   Data           4  startup_stm32f40_41xxx.o(RESET)
    __Vectors_End                            0x08000188   Data           0  startup_stm32f40_41xxx.o(RESET)
    __main                                   0x08000189   Thumb Code     8  __main.o(!!!main)
    __scatterload                            0x08000191   Thumb Code     0  __scatter.o(!!!scatter)
    __scatterload_rt2                        0x08000191   Thumb Code    44  __scatter.o(!!!scatter)
    __scatterload_rt2_thumb_only             0x08000191   Thumb Code     0  __scatter.o(!!!scatter)
    __scatterload_null                       0x0800019f   Thumb Code     0  __scatter.o(!!!scatter)
    __decompress                             0x080001c5   Thumb Code    90  __dczerorl2.o(!!dczerorl2)
    __decompress1                            0x080001c5   Thumb Code     0  __dczerorl2.o(!!dczerorl2)
    __scatterload_zeroinit                   0x08000221   Thumb Code    28  __scatter_zi.o(!!handler_zi)
    _printf_d                                0x0800023d   Thumb Code     0  _printf_d.o(.ARM.Collect$$_printf_percent$$00000009)
    _printf_percent                          0x0800023d   Thumb Code     0  _printf_percent.o(.ARM.Collect$$_printf_percent$$00000000)
    _printf_u                                0x08000243   Thumb Code     0  _printf_u.o(.ARM.Collect$$_printf_percent$$0000000A)
    _printf_x                                0x08000249   Thumb Code     0  _printf_x.o(.ARM.Collect$$_printf_percent$$0000000C)
    _printf_s                                0x0800024f   Thumb Code     0  _printf_s.o(.ARM.Collect$$_printf_percent$$00000014)
    _printf_percent_end                      0x08000255   Thumb Code     0  _printf_percent_end.o(.ARM.Collect$$_printf_percent$$00000017)
    __rt_lib_init                            0x08000259   Thumb Code     0  libinit.o(.ARM.Collect$$libinit$$00000000)
    __rt_lib_init_fp_1                       0x0800025b   Thumb Code     0  libinit2.o(.ARM.Collect$$libinit$$00000001)
    __rt_lib_init_alloca_1                   0x0800025f   Thumb Code     0  libinit2.o(.ARM.Collect$$libinit$$0000002E)
    __rt_lib_init_argv_1                     0x0800025f   Thumb Code     0  libinit2.o(.ARM.Collect$$libinit$$0000002C)
    __rt_lib_init_atexit_1                   0x0800025f   Thumb Code     0  libinit2.o(.ARM.Collect$$libinit$$0000001B)
    __rt_lib_init_clock_1                    0x0800025f   Thumb Code     0  libinit2.o(.ARM.Collect$$libinit$$00000021)
    __rt_lib_init_cpp_1                      0x0800025f   Thumb Code     0  libinit2.o(.ARM.Collect$$libinit$$00000032)
    __rt_lib_init_exceptions_1               0x0800025f   Thumb Code     0  libinit2.o(.ARM.Collect$$libinit$$00000030)
    __rt_lib_init_fp_trap_1                  0x0800025f   Thumb Code     0  libinit2.o(.ARM.Collect$$libinit$$0000001F)
    __rt_lib_init_getenv_1                   0x0800025f   Thumb Code     0  libinit2.o(.ARM.Collect$$libinit$$00000023)
    __rt_lib_init_heap_1                     0x0800025f   Thumb Code     0  libinit2.o(.ARM.Collect$$libinit$$0000000A)
    __rt_lib_init_lc_collate_1               0x0800025f   Thumb Code     0  libinit2.o(.ARM.Collect$$libinit$$00000011)
    __rt_lib_init_lc_ctype_1                 0x0800025f   Thumb Code     0  libinit2.o(.ARM.Collect$$libinit$$00000013)
    __rt_lib_init_lc_monetary_1              0x0800025f   Thumb Code     0  libinit2.o(.ARM.Collect$$libinit$$00000015)
    __rt_lib_init_lc_numeric_1               0x0800025f   Thumb Code     0  libinit2.o(.ARM.Collect$$libinit$$00000017)
    __rt_lib_init_lc_time_1                  0x0800025f   Thumb Code     0  libinit2.o(.ARM.Collect$$libinit$$00000019)
    __rt_lib_init_preinit_1                  0x0800025f   Thumb Code     0  libinit2.o(.ARM.Collect$$libinit$$00000004)
    __rt_lib_init_rand_1                     0x0800025f   Thumb Code     0  libinit2.o(.ARM.Collect$$libinit$$0000000E)
    __rt_lib_init_return                     0x0800025f   Thumb Code     0  libinit2.o(.ARM.Collect$$libinit$$00000033)
    __rt_lib_init_signal_1                   0x0800025f   Thumb Code     0  libinit2.o(.ARM.Collect$$libinit$$0000001D)
    __rt_lib_init_stdio_1                    0x0800025f   Thumb Code     0  libinit2.o(.ARM.Collect$$libinit$$00000025)
    __rt_lib_init_user_alloc_1               0x0800025f   Thumb Code     0  libinit2.o(.ARM.Collect$$libinit$$0000000C)
    __rt_lib_shutdown                        0x08000261   Thumb Code     0  libshutdown.o(.ARM.Collect$$libshutdown$$00000000)
    __rt_lib_shutdown_cpp_1                  0x08000263   Thumb Code     0  libshutdown2.o(.ARM.Collect$$libshutdown$$00000002)
    __rt_lib_shutdown_fp_trap_1              0x08000263   Thumb Code     0  libshutdown2.o(.ARM.Collect$$libshutdown$$00000007)
    __rt_lib_shutdown_heap_1                 0x08000263   Thumb Code     0  libshutdown2.o(.ARM.Collect$$libshutdown$$0000000F)
    __rt_lib_shutdown_return                 0x08000263   Thumb Code     0  libshutdown2.o(.ARM.Collect$$libshutdown$$00000010)
    __rt_lib_shutdown_signal_1               0x08000263   Thumb Code     0  libshutdown2.o(.ARM.Collect$$libshutdown$$0000000A)
    __rt_lib_shutdown_stdio_1                0x08000263   Thumb Code     0  libshutdown2.o(.ARM.Collect$$libshutdown$$00000004)
    __rt_lib_shutdown_user_alloc_1           0x08000263   Thumb Code     0  libshutdown2.o(.ARM.Collect$$libshutdown$$0000000C)
    __rt_entry                               0x08000265   Thumb Code     0  __rtentry.o(.ARM.Collect$$rtentry$$00000000)
    __rt_entry_presh_1                       0x08000265   Thumb Code     0  __rtentry2.o(.ARM.Collect$$rtentry$$00000002)
    __rt_entry_sh                            0x08000265   Thumb Code     0  __rtentry4.o(.ARM.Collect$$rtentry$$00000004)
    __rt_entry_li                            0x0800026b   Thumb Code     0  __rtentry2.o(.ARM.Collect$$rtentry$$0000000A)
    __rt_entry_postsh_1                      0x0800026b   Thumb Code     0  __rtentry2.o(.ARM.Collect$$rtentry$$00000009)
    __rt_entry_main                          0x0800026f   Thumb Code     0  __rtentry2.o(.ARM.Collect$$rtentry$$0000000D)
    __rt_entry_postli_1                      0x0800026f   Thumb Code     0  __rtentry2.o(.ARM.Collect$$rtentry$$0000000C)
    __rt_exit                                0x08000277   Thumb Code     0  rtexit.o(.ARM.Collect$$rtexit$$00000000)
    __rt_exit_ls                             0x08000279   Thumb Code     0  rtexit2.o(.ARM.Collect$$rtexit$$00000003)
    __rt_exit_prels_1                        0x08000279   Thumb Code     0  rtexit2.o(.ARM.Collect$$rtexit$$00000002)
    __rt_exit_exit                           0x0800027d   Thumb Code     0  rtexit2.o(.ARM.Collect$$rtexit$$00000004)
    start_task                               0x08000285   Thumb Code    52  main.o(.text)
    main                                     0x080002b9   Thumb Code    54  main.o(.text)
    NMI_Handler                              0x08000305   Thumb Code     2  stm32f4xx_it.o(.text)
    HardFault_Handler                        0x08000307   Thumb Code     4  stm32f4xx_it.o(.text)
    MemManage_Handler                        0x0800030b   Thumb Code     4  stm32f4xx_it.o(.text)
    BusFault_Handler                         0x0800030f   Thumb Code     4  stm32f4xx_it.o(.text)
    UsageFault_Handler                       0x08000313   Thumb Code     4  stm32f4xx_it.o(.text)
    SVC_Handler                              0x08000317   Thumb Code     2  stm32f4xx_it.o(.text)
    DebugMon_Handler                         0x08000319   Thumb Code     2  stm32f4xx_it.o(.text)
    SystemInit                               0x080003f9   Thumb Code    88  system_stm32f4xx.o(.text)
    SystemCoreClockUpdate                    0x08000451   Thumb Code   174  system_stm32f4xx.o(.text)
    tcp_task                                 0x0800052d   Thumb Code   394  task_tcp.o(.text)
    led1_task                                0x080006b7   Thumb Code    34  task_tcp.o(.text)
    LED_Init                                 0x080008c1   Thumb Code    60  led.o(.text)
    TIM3_Int_Init                            0x08000901   Thumb Code    88  timer.o(.text)
    SPI1_ReadWriteByte                       0x0800095d   Thumb Code    50  spi.o(.text)
    SPI1_Init                                0x0800098f   Thumb Code   186  spi.o(.text)
    SPI1_SetSpeed                            0x08000a49   Thumb Code    36  spi.o(.text)
    SPI2_ReadWriteByte                       0x08000a6d   Thumb Code    50  spi.o(.text)
    SPI2_Init                                0x08000a9f   Thumb Code   198  spi.o(.text)
    SPI2_SetSpeed                            0x08000b65   Thumb Code    42  spi.o(.text)
    delay_osschedlock                        0x08000b9d   Thumb Code     8  delay.o(.text)
    delay_osschedunlock                      0x08000ba5   Thumb Code     8  delay.o(.text)
    delay_ostimedly                          0x08000bad   Thumb Code    12  delay.o(.text)
    SysTick_Handler                          0x08000bb9   Thumb Code    24  delay.o(.text)
    delay_init                               0x08000bd1   Thumb Code    76  delay.o(.text)
    delay_us                                 0x08000c1d   Thumb Code    84  delay.o(.text)
    delay_ms                                 0x08000c71   Thumb Code    66  delay.o(.text)
    _sys_exit                                0x08000cc5   Thumb Code     6  usart.o(.text)
    fputc                                    0x08000ccb   Thumb Code    22  usart.o(.text)
    uart_init                                0x08000ce1   Thumb Code   164  usart.o(.text)
    USART1_IRQHandler                        0x08000d85   Thumb Code   130  usart.o(.text)
    Reset_Handler                            0x08000e19   Thumb Code     8  startup_stm32f40_41xxx.o(.text)
    ADC_IRQHandler                           0x08000e33   Thumb Code     0  startup_stm32f40_41xxx.o(.text)
    CAN1_RX0_IRQHandler                      0x08000e33   Thumb Code     0  startup_stm32f40_41xxx.o(.text)
    CAN1_RX1_IRQHandler                      0x08000e33   Thumb Code     0  startup_stm32f40_41xxx.o(.text)
    CAN1_SCE_IRQHandler                      0x08000e33   Thumb Code     0  startup_stm32f40_41xxx.o(.text)
    CAN1_TX_IRQHandler                       0x08000e33   Thumb Code     0  startup_stm32f40_41xxx.o(.text)
    CAN2_RX0_IRQHandler                      0x08000e33   Thumb Code     0  startup_stm32f40_41xxx.o(.text)
    CAN2_RX1_IRQHandler                      0x08000e33   Thumb Code     0  startup_stm32f40_41xxx.o(.text)
    CAN2_SCE_IRQHandler                      0x08000e33   Thumb Code     0  startup_stm32f40_41xxx.o(.text)
    CAN2_TX_IRQHandler                       0x08000e33   Thumb Code     0  startup_stm32f40_41xxx.o(.text)
    CRYP_IRQHandler                          0x08000e33   Thumb Code     0  startup_stm32f40_41xxx.o(.text)
    DCMI_IRQHandler                          0x08000e33   Thumb Code     0  startup_stm32f40_41xxx.o(.text)
    DMA1_Stream0_IRQHandler                  0x08000e33   Thumb Code     0  startup_stm32f40_41xxx.o(.text)
    DMA1_Stream1_IRQHandler                  0x08000e33   Thumb Code     0  startup_stm32f40_41xxx.o(.text)
    DMA1_Stream2_IRQHandler                  0x08000e33   Thumb Code     0  startup_stm32f40_41xxx.o(.text)
    DMA1_Stream3_IRQHandler                  0x08000e33   Thumb Code     0  startup_stm32f40_41xxx.o(.text)
    DMA1_Stream4_IRQHandler                  0x08000e33   Thumb Code     0  startup_stm32f40_41xxx.o(.text)
    DMA1_Stream5_IRQHandler                  0x08000e33   Thumb Code     0  startup_stm32f40_41xxx.o(.text)
    DMA1_Stream6_IRQHandler                  0x08000e33   Thumb Code     0  startup_stm32f40_41xxx.o(.text)
    DMA1_Stream7_IRQHandler                  0x08000e33   Thumb Code     0  startup_stm32f40_41xxx.o(.text)
    DMA2_Stream0_IRQHandler                  0x08000e33   Thumb Code     0  startup_stm32f40_41xxx.o(.text)
    DMA2_Stream1_IRQHandler                  0x08000e33   Thumb Code     0  startup_stm32f40_41xxx.o(.text)
    DMA2_Stream2_IRQHandler                  0x08000e33   Thumb Code     0  startup_stm32f40_41xxx.o(.text)
    DMA2_Stream3_IRQHandler                  0x08000e33   Thumb Code     0  startup_stm32f40_41xxx.o(.text)
    DMA2_Stream4_IRQHandler                  0x08000e33   Thumb Code     0  startup_stm32f40_41xxx.o(.text)
    DMA2_Stream5_IRQHandler                  0x08000e33   Thumb Code     0  startup_stm32f40_41xxx.o(.text)
    DMA2_Stream6_IRQHandler                  0x08000e33   Thumb Code     0  startup_stm32f40_41xxx.o(.text)
    DMA2_Stream7_IRQHandler                  0x08000e33   Thumb Code     0  startup_stm32f40_41xxx.o(.text)
    ETH_IRQHandler                           0x08000e33   Thumb Code     0  startup_stm32f40_41xxx.o(.text)
    ETH_WKUP_IRQHandler                      0x08000e33   Thumb Code     0  startup_stm32f40_41xxx.o(.text)
    EXTI0_IRQHandler                         0x08000e33   Thumb Code     0  startup_stm32f40_41xxx.o(.text)
    EXTI15_10_IRQHandler                     0x08000e33   Thumb Code     0  startup_stm32f40_41xxx.o(.text)
    EXTI1_IRQHandler                         0x08000e33   Thumb Code     0  startup_stm32f40_41xxx.o(.text)
    EXTI2_IRQHandler                         0x08000e33   Thumb Code     0  startup_stm32f40_41xxx.o(.text)
    EXTI3_IRQHandler                         0x08000e33   Thumb Code     0  startup_stm32f40_41xxx.o(.text)
    EXTI4_IRQHandler                         0x08000e33   Thumb Code     0  startup_stm32f40_41xxx.o(.text)
    EXTI9_5_IRQHandler                       0x08000e33   Thumb Code     0  startup_stm32f40_41xxx.o(.text)
    FLASH_IRQHandler                         0x08000e33   Thumb Code     0  startup_stm32f40_41xxx.o(.text)
    FPU_IRQHandler                           0x08000e33   Thumb Code     0  startup_stm32f40_41xxx.o(.text)
    FSMC_IRQHandler                          0x08000e33   Thumb Code     0  startup_stm32f40_41xxx.o(.text)
    HASH_RNG_IRQHandler                      0x08000e33   Thumb Code     0  startup_stm32f40_41xxx.o(.text)
    I2C1_ER_IRQHandler                       0x08000e33   Thumb Code     0  startup_stm32f40_41xxx.o(.text)
    I2C1_EV_IRQHandler                       0x08000e33   Thumb Code     0  startup_stm32f40_41xxx.o(.text)
    I2C2_ER_IRQHandler                       0x08000e33   Thumb Code     0  startup_stm32f40_41xxx.o(.text)
    I2C2_EV_IRQHandler                       0x08000e33   Thumb Code     0  startup_stm32f40_41xxx.o(.text)
    I2C3_ER_IRQHandler                       0x08000e33   Thumb Code     0  startup_stm32f40_41xxx.o(.text)
    I2C3_EV_IRQHandler                       0x08000e33   Thumb Code     0  startup_stm32f40_41xxx.o(.text)
    OTG_FS_IRQHandler                        0x08000e33   Thumb Code     0  startup_stm32f40_41xxx.o(.text)
    OTG_FS_WKUP_IRQHandler                   0x08000e33   Thumb Code     0  startup_stm32f40_41xxx.o(.text)
    OTG_HS_EP1_IN_IRQHandler                 0x08000e33   Thumb Code     0  startup_stm32f40_41xxx.o(.text)
    OTG_HS_EP1_OUT_IRQHandler                0x08000e33   Thumb Code     0  startup_stm32f40_41xxx.o(.text)
    OTG_HS_IRQHandler                        0x08000e33   Thumb Code     0  startup_stm32f40_41xxx.o(.text)
    OTG_HS_WKUP_IRQHandler                   0x08000e33   Thumb Code     0  startup_stm32f40_41xxx.o(.text)
    PVD_IRQHandler                           0x08000e33   Thumb Code     0  startup_stm32f40_41xxx.o(.text)
    RCC_IRQHandler                           0x08000e33   Thumb Code     0  startup_stm32f40_41xxx.o(.text)
    RTC_Alarm_IRQHandler                     0x08000e33   Thumb Code     0  startup_stm32f40_41xxx.o(.text)
    RTC_WKUP_IRQHandler                      0x08000e33   Thumb Code     0  startup_stm32f40_41xxx.o(.text)
    SDIO_IRQHandler                          0x08000e33   Thumb Code     0  startup_stm32f40_41xxx.o(.text)
    SPI1_IRQHandler                          0x08000e33   Thumb Code     0  startup_stm32f40_41xxx.o(.text)
    SPI2_IRQHandler                          0x08000e33   Thumb Code     0  startup_stm32f40_41xxx.o(.text)
    SPI3_IRQHandler                          0x08000e33   Thumb Code     0  startup_stm32f40_41xxx.o(.text)
    TAMP_STAMP_IRQHandler                    0x08000e33   Thumb Code     0  startup_stm32f40_41xxx.o(.text)
    TIM1_BRK_TIM9_IRQHandler                 0x08000e33   Thumb Code     0  startup_stm32f40_41xxx.o(.text)
    TIM1_CC_IRQHandler                       0x08000e33   Thumb Code     0  startup_stm32f40_41xxx.o(.text)
    TIM1_TRG_COM_TIM11_IRQHandler            0x08000e33   Thumb Code     0  startup_stm32f40_41xxx.o(.text)
    TIM1_UP_TIM10_IRQHandler                 0x08000e33   Thumb Code     0  startup_stm32f40_41xxx.o(.text)
    TIM2_IRQHandler                          0x08000e33   Thumb Code     0  startup_stm32f40_41xxx.o(.text)
    TIM4_IRQHandler                          0x08000e33   Thumb Code     0  startup_stm32f40_41xxx.o(.text)
    TIM5_IRQHandler                          0x08000e33   Thumb Code     0  startup_stm32f40_41xxx.o(.text)
    TIM6_DAC_IRQHandler                      0x08000e33   Thumb Code     0  startup_stm32f40_41xxx.o(.text)
    TIM7_IRQHandler                          0x08000e33   Thumb Code     0  startup_stm32f40_41xxx.o(.text)
    TIM8_BRK_TIM12_IRQHandler                0x08000e33   Thumb Code     0  startup_stm32f40_41xxx.o(.text)
    TIM8_CC_IRQHandler                       0x08000e33   Thumb Code     0  startup_stm32f40_41xxx.o(.text)
    TIM8_TRG_COM_TIM14_IRQHandler            0x08000e33   Thumb Code     0  startup_stm32f40_41xxx.o(.text)
    TIM8_UP_TIM13_IRQHandler                 0x08000e33   Thumb Code     0  startup_stm32f40_41xxx.o(.text)
    UART4_IRQHandler                         0x08000e33   Thumb Code     0  startup_stm32f40_41xxx.o(.text)
    UART5_IRQHandler                         0x08000e33   Thumb Code     0  startup_stm32f40_41xxx.o(.text)
    USART2_IRQHandler                        0x08000e33   Thumb Code     0  startup_stm32f40_41xxx.o(.text)
    USART3_IRQHandler                        0x08000e33   Thumb Code     0  startup_stm32f40_41xxx.o(.text)
    USART6_IRQHandler                        0x08000e33   Thumb Code     0  startup_stm32f40_41xxx.o(.text)
    WWDG_IRQHandler                          0x08000e33   Thumb Code     0  startup_stm32f40_41xxx.o(.text)
    __user_initial_stackheap                 0x08000e35   Thumb Code     0  startup_stm32f40_41xxx.o(.text)
    NVIC_PriorityGroupConfig                 0x08000e59   Thumb Code    10  misc.o(.text)
    NVIC_Init                                0x08000e63   Thumb Code   106  misc.o(.text)
    NVIC_SetVectorTable                      0x08000ecd   Thumb Code    14  misc.o(.text)
    NVIC_SystemLPConfig                      0x08000edb   Thumb Code    34  misc.o(.text)
    SysTick_CLKSourceConfig                  0x08000efd   Thumb Code    40  misc.o(.text)
    GPIO_DeInit                              0x08000f39   Thumb Code   268  stm32f4xx_gpio.o(.text)
    GPIO_Init                                0x08001045   Thumb Code   144  stm32f4xx_gpio.o(.text)
    GPIO_StructInit                          0x080010d5   Thumb Code    18  stm32f4xx_gpio.o(.text)
    GPIO_PinLockConfig                       0x080010e7   Thumb Code    34  stm32f4xx_gpio.o(.text)
    GPIO_ReadInputDataBit                    0x08001109   Thumb Code    18  stm32f4xx_gpio.o(.text)
    GPIO_ReadInputData                       0x0800111b   Thumb Code     8  stm32f4xx_gpio.o(.text)
    GPIO_ReadOutputDataBit                   0x08001123   Thumb Code    18  stm32f4xx_gpio.o(.text)
    GPIO_ReadOutputData                      0x08001135   Thumb Code     8  stm32f4xx_gpio.o(.text)
    GPIO_SetBits                             0x0800113d   Thumb Code     4  stm32f4xx_gpio.o(.text)
    GPIO_ResetBits                           0x08001141   Thumb Code     4  stm32f4xx_gpio.o(.text)
    GPIO_WriteBit                            0x08001145   Thumb Code    10  stm32f4xx_gpio.o(.text)
    GPIO_Write                               0x0800114f   Thumb Code     4  stm32f4xx_gpio.o(.text)
    GPIO_ToggleBits                          0x08001153   Thumb Code     8  stm32f4xx_gpio.o(.text)
    GPIO_PinAFConfig                         0x0800115b   Thumb Code    70  stm32f4xx_gpio.o(.text)
    RCC_DeInit                               0x080011cd   Thumb Code    82  stm32f4xx_rcc.o(.text)
    RCC_HSEConfig                            0x0800121f   Thumb Code    14  stm32f4xx_rcc.o(.text)
    RCC_GetFlagStatus                        0x0800122d   Thumb Code    60  stm32f4xx_rcc.o(.text)
    RCC_WaitForHSEStartUp                    0x08001269   Thumb Code    56  stm32f4xx_rcc.o(.text)
    RCC_AdjustHSICalibrationValue            0x080012a1   Thumb Code    20  stm32f4xx_rcc.o(.text)
    RCC_HSICmd                               0x080012b5   Thumb Code     6  stm32f4xx_rcc.o(.text)
    RCC_LSEConfig                            0x080012bb   Thumb Code    46  stm32f4xx_rcc.o(.text)
    RCC_LSICmd                               0x080012e9   Thumb Code     6  stm32f4xx_rcc.o(.text)
    RCC_PLLConfig                            0x080012ef   Thumb Code    32  stm32f4xx_rcc.o(.text)
    RCC_PLLCmd                               0x0800130f   Thumb Code     6  stm32f4xx_rcc.o(.text)
    RCC_PLLI2SConfig                         0x08001315   Thumb Code    14  stm32f4xx_rcc.o(.text)
    RCC_PLLI2SCmd                            0x08001323   Thumb Code     6  stm32f4xx_rcc.o(.text)
    RCC_PLLSAIConfig                         0x08001329   Thumb Code    20  stm32f4xx_rcc.o(.text)
    RCC_PLLSAICmd                            0x0800133d   Thumb Code     6  stm32f4xx_rcc.o(.text)
    RCC_ClockSecuritySystemCmd               0x08001343   Thumb Code     6  stm32f4xx_rcc.o(.text)
    RCC_MCO1Config                           0x08001349   Thumb Code    28  stm32f4xx_rcc.o(.text)
    RCC_MCO2Config                           0x08001365   Thumb Code    28  stm32f4xx_rcc.o(.text)
    RCC_SYSCLKConfig                         0x08001381   Thumb Code    20  stm32f4xx_rcc.o(.text)
    RCC_GetSYSCLKSource                      0x08001395   Thumb Code    12  stm32f4xx_rcc.o(.text)
    RCC_HCLKConfig                           0x080013a1   Thumb Code    20  stm32f4xx_rcc.o(.text)
    RCC_PCLK1Config                          0x080013b5   Thumb Code    20  stm32f4xx_rcc.o(.text)
    RCC_PCLK2Config                          0x080013c9   Thumb Code    22  stm32f4xx_rcc.o(.text)
    RCC_GetClocksFreq                        0x080013df   Thumb Code   222  stm32f4xx_rcc.o(.text)
    RCC_RTCCLKConfig                         0x080014bd   Thumb Code    54  stm32f4xx_rcc.o(.text)
    RCC_RTCCLKCmd                            0x080014f3   Thumb Code     8  stm32f4xx_rcc.o(.text)
    RCC_BackupResetCmd                       0x080014fb   Thumb Code     8  stm32f4xx_rcc.o(.text)
    RCC_I2SCLKConfig                         0x08001503   Thumb Code     6  stm32f4xx_rcc.o(.text)
    RCC_SAIPLLI2SClkDivConfig                0x08001509   Thumb Code    26  stm32f4xx_rcc.o(.text)
    RCC_SAIPLLSAIClkDivConfig                0x08001523   Thumb Code    28  stm32f4xx_rcc.o(.text)
    RCC_SAIBlockACLKConfig                   0x0800153f   Thumb Code    20  stm32f4xx_rcc.o(.text)
    RCC_SAIBlockBCLKConfig                   0x08001553   Thumb Code    20  stm32f4xx_rcc.o(.text)
    RCC_LTDCCLKDivConfig                     0x08001567   Thumb Code    20  stm32f4xx_rcc.o(.text)
    RCC_TIMCLKPresConfig                     0x0800157b   Thumb Code     6  stm32f4xx_rcc.o(.text)
    RCC_AHB1PeriphClockCmd                   0x08001581   Thumb Code    34  stm32f4xx_rcc.o(.text)
    RCC_AHB2PeriphClockCmd                   0x080015a3   Thumb Code    78  stm32f4xx_rcc.o(.text)
    RCC_AHB3PeriphClockCmd                   0x080015f1   Thumb Code    34  stm32f4xx_rcc.o(.text)
    RCC_APB1PeriphClockCmd                   0x08001613   Thumb Code    34  stm32f4xx_rcc.o(.text)
    RCC_APB2PeriphClockCmd                   0x08001635   Thumb Code    34  stm32f4xx_rcc.o(.text)
    RCC_AHB1PeriphResetCmd                   0x08001657   Thumb Code    34  stm32f4xx_rcc.o(.text)
    RCC_AHB2PeriphResetCmd                   0x08001679   Thumb Code    34  stm32f4xx_rcc.o(.text)
    RCC_AHB3PeriphResetCmd                   0x0800169b   Thumb Code    34  stm32f4xx_rcc.o(.text)
    RCC_APB1PeriphResetCmd                   0x080016bd   Thumb Code    34  stm32f4xx_rcc.o(.text)
    RCC_APB2PeriphResetCmd                   0x080016df   Thumb Code    34  stm32f4xx_rcc.o(.text)
    RCC_AHB1PeriphClockLPModeCmd             0x08001701   Thumb Code    34  stm32f4xx_rcc.o(.text)
    RCC_AHB2PeriphClockLPModeCmd             0x08001723   Thumb Code    34  stm32f4xx_rcc.o(.text)
    RCC_AHB3PeriphClockLPModeCmd             0x08001745   Thumb Code    34  stm32f4xx_rcc.o(.text)
    RCC_APB1PeriphClockLPModeCmd             0x08001767   Thumb Code    34  stm32f4xx_rcc.o(.text)
    RCC_APB2PeriphClockLPModeCmd             0x08001789   Thumb Code    34  stm32f4xx_rcc.o(.text)
    RCC_LSEModeConfig                        0x080017ab   Thumb Code    40  stm32f4xx_rcc.o(.text)
    RCC_ITConfig                             0x080017d3   Thumb Code    34  stm32f4xx_rcc.o(.text)
    RCC_ClearFlag                            0x080017f5   Thumb Code    18  stm32f4xx_rcc.o(.text)
    RCC_GetITStatus                          0x08001807   Thumb Code    22  stm32f4xx_rcc.o(.text)
    RCC_ClearITPendingBit                    0x0800181d   Thumb Code     8  stm32f4xx_rcc.o(.text)
    USART_DeInit                             0x08001829   Thumb Code   206  stm32f4xx_usart.o(.text)
    USART_Init                               0x080018f7   Thumb Code   204  stm32f4xx_usart.o(.text)
    USART_StructInit                         0x080019c3   Thumb Code    24  stm32f4xx_usart.o(.text)
    USART_ClockInit                          0x080019db   Thumb Code    32  stm32f4xx_usart.o(.text)
    USART_ClockStructInit                    0x080019fb   Thumb Code    12  stm32f4xx_usart.o(.text)
    USART_Cmd                                0x08001a07   Thumb Code    24  stm32f4xx_usart.o(.text)
    USART_SetPrescaler                       0x08001a1f   Thumb Code    16  stm32f4xx_usart.o(.text)
    USART_OverSampling8Cmd                   0x08001a2f   Thumb Code    22  stm32f4xx_usart.o(.text)
    USART_OneBitMethodCmd                    0x08001a45   Thumb Code    24  stm32f4xx_usart.o(.text)
    USART_SendData                           0x08001a5d   Thumb Code     8  stm32f4xx_usart.o(.text)
    USART_ReceiveData                        0x08001a65   Thumb Code    10  stm32f4xx_usart.o(.text)
    USART_SetAddress                         0x08001a6f   Thumb Code    18  stm32f4xx_usart.o(.text)
    USART_ReceiverWakeUpCmd                  0x08001a81   Thumb Code    24  stm32f4xx_usart.o(.text)
    USART_WakeUpConfig                       0x08001a99   Thumb Code    18  stm32f4xx_usart.o(.text)
    USART_LINBreakDetectLengthConfig         0x08001aab   Thumb Code    18  stm32f4xx_usart.o(.text)
    USART_LINCmd                             0x08001abd   Thumb Code    24  stm32f4xx_usart.o(.text)
    USART_SendBreak                          0x08001ad5   Thumb Code    10  stm32f4xx_usart.o(.text)
    USART_HalfDuplexCmd                      0x08001adf   Thumb Code    24  stm32f4xx_usart.o(.text)
    USART_SetGuardTime                       0x08001af7   Thumb Code    16  stm32f4xx_usart.o(.text)
    USART_SmartCardCmd                       0x08001b07   Thumb Code    24  stm32f4xx_usart.o(.text)
    USART_SmartCardNACKCmd                   0x08001b1f   Thumb Code    24  stm32f4xx_usart.o(.text)
    USART_IrDAConfig                         0x08001b37   Thumb Code    18  stm32f4xx_usart.o(.text)
    USART_IrDACmd                            0x08001b49   Thumb Code    24  stm32f4xx_usart.o(.text)
    USART_DMACmd                             0x08001b61   Thumb Code    18  stm32f4xx_usart.o(.text)
    USART_ITConfig                           0x08001b73   Thumb Code    74  stm32f4xx_usart.o(.text)
    USART_GetFlagStatus                      0x08001bbd   Thumb Code    26  stm32f4xx_usart.o(.text)
    USART_ClearFlag                          0x08001bd7   Thumb Code    18  stm32f4xx_usart.o(.text)
    USART_GetITStatus                        0x08001be9   Thumb Code   118  stm32f4xx_usart.o(.text)
    USART_ClearITPendingBit                  0x08001c5f   Thumb Code    30  stm32f4xx_usart.o(.text)
    SPI_I2S_DeInit                           0x08001c7d   Thumb Code   152  stm32f4xx_spi.o(.text)
    SPI_Init                                 0x08001d15   Thumb Code    60  stm32f4xx_spi.o(.text)
    I2S_Init                                 0x08001d51   Thumb Code   396  stm32f4xx_spi.o(.text)
    SPI_StructInit                           0x08001edd   Thumb Code    24  stm32f4xx_spi.o(.text)
    I2S_StructInit                           0x08001ef5   Thumb Code    20  stm32f4xx_spi.o(.text)
    SPI_Cmd                                  0x08001f09   Thumb Code    24  stm32f4xx_spi.o(.text)
    I2S_Cmd                                  0x08001f21   Thumb Code    24  stm32f4xx_spi.o(.text)
    SPI_DataSizeConfig                       0x08001f39   Thumb Code    18  stm32f4xx_spi.o(.text)
    SPI_BiDirectionalLineConfig              0x08001f4b   Thumb Code    28  stm32f4xx_spi.o(.text)
    SPI_NSSInternalSoftwareConfig            0x08001f67   Thumb Code    30  stm32f4xx_spi.o(.text)
    SPI_SSOutputCmd                          0x08001f85   Thumb Code    24  stm32f4xx_spi.o(.text)
    SPI_TIModeCmd                            0x08001f9d   Thumb Code    24  stm32f4xx_spi.o(.text)
    I2S_FullDuplexConfig                     0x08001fb5   Thumb Code    80  stm32f4xx_spi.o(.text)
    SPI_I2S_ReceiveData                      0x08002005   Thumb Code     6  stm32f4xx_spi.o(.text)
    SPI_I2S_SendData                         0x0800200b   Thumb Code     4  stm32f4xx_spi.o(.text)
    SPI_CalculateCRC                         0x0800200f   Thumb Code    24  stm32f4xx_spi.o(.text)
    SPI_TransmitCRC                          0x08002027   Thumb Code    10  stm32f4xx_spi.o(.text)
    SPI_GetCRC                               0x08002031   Thumb Code    16  stm32f4xx_spi.o(.text)
    SPI_GetCRCPolynomial                     0x08002041   Thumb Code     6  stm32f4xx_spi.o(.text)
    SPI_I2S_DMACmd                           0x08002047   Thumb Code    18  stm32f4xx_spi.o(.text)
    SPI_I2S_ITConfig                         0x08002059   Thumb Code    68  stm32f4xx_spi.o(.text)
    SPI_I2S_GetFlagStatus                    0x0800209d   Thumb Code    18  stm32f4xx_spi.o(.text)
    SPI_I2S_ClearFlag                        0x080020af   Thumb Code     6  stm32f4xx_spi.o(.text)
    SPI_I2S_GetITStatus                      0x080020b5   Thumb Code    52  stm32f4xx_spi.o(.text)
    SPI_I2S_ClearITPendingBit                0x080020e9   Thumb Code    20  stm32f4xx_spi.o(.text)
    TIM_DeInit                               0x080020fd   Thumb Code   346  stm32f4xx_tim.o(.text)
    TIM_TimeBaseInit                         0x08002257   Thumb Code   104  stm32f4xx_tim.o(.text)
    TIM_TimeBaseStructInit                   0x080022bf   Thumb Code    18  stm32f4xx_tim.o(.text)
    TIM_PrescalerConfig                      0x080022d1   Thumb Code     6  stm32f4xx_tim.o(.text)
    TIM_CounterModeConfig                    0x080022d7   Thumb Code    18  stm32f4xx_tim.o(.text)
    TIM_SetCounter                           0x080022e9   Thumb Code     4  stm32f4xx_tim.o(.text)
    TIM_SetAutoreload                        0x080022ed   Thumb Code     4  stm32f4xx_tim.o(.text)
    TIM_GetCounter                           0x080022f1   Thumb Code     6  stm32f4xx_tim.o(.text)
    TIM_GetPrescaler                         0x080022f7   Thumb Code     6  stm32f4xx_tim.o(.text)
    TIM_UpdateDisableConfig                  0x080022fd   Thumb Code    24  stm32f4xx_tim.o(.text)
    TIM_UpdateRequestConfig                  0x08002315   Thumb Code    24  stm32f4xx_tim.o(.text)
    TIM_ARRPreloadConfig                     0x0800232d   Thumb Code    24  stm32f4xx_tim.o(.text)
    TIM_SelectOnePulseMode                   0x08002345   Thumb Code    18  stm32f4xx_tim.o(.text)
    TIM_SetClockDivision                     0x08002357   Thumb Code    18  stm32f4xx_tim.o(.text)
    TIM_Cmd                                  0x08002369   Thumb Code    24  stm32f4xx_tim.o(.text)
    TIM_OC1Init                              0x08002381   Thumb Code   114  stm32f4xx_tim.o(.text)
    TIM_OC2Init                              0x080023f3   Thumb Code   154  stm32f4xx_tim.o(.text)
    TIM_OC3Init                              0x0800248d   Thumb Code   204  stm32f4xx_tim.o(.text)
    TIM_OC4Init                              0x08002559   Thumb Code   112  stm32f4xx_tim.o(.text)
    TIM_OCStructInit                         0x080025c9   Thumb Code    20  stm32f4xx_tim.o(.text)
    TIM_SelectOCxM                           0x080025dd   Thumb Code    86  stm32f4xx_tim.o(.text)
    TIM_SetCompare1                          0x08002633   Thumb Code     4  stm32f4xx_tim.o(.text)
    TIM_SetCompare2                          0x08002637   Thumb Code     4  stm32f4xx_tim.o(.text)
    TIM_SetCompare3                          0x0800263b   Thumb Code     4  stm32f4xx_tim.o(.text)
    TIM_SetCompare4                          0x0800263f   Thumb Code     4  stm32f4xx_tim.o(.text)
    TIM_ForcedOC1Config                      0x08002643   Thumb Code    18  stm32f4xx_tim.o(.text)
    TIM_ForcedOC2Config                      0x08002655   Thumb Code    26  stm32f4xx_tim.o(.text)
    TIM_ForcedOC3Config                      0x0800266f   Thumb Code    18  stm32f4xx_tim.o(.text)
    TIM_ForcedOC4Config                      0x08002681   Thumb Code    26  stm32f4xx_tim.o(.text)
    TIM_OC1PreloadConfig                     0x0800269b   Thumb Code    18  stm32f4xx_tim.o(.text)
    TIM_OC2PreloadConfig                     0x080026ad   Thumb Code    26  stm32f4xx_tim.o(.text)
    TIM_OC3PreloadConfig                     0x080026c7   Thumb Code    18  stm32f4xx_tim.o(.text)
    TIM_OC4PreloadConfig                     0x080026d9   Thumb Code    26  stm32f4xx_tim.o(.text)
    TIM_OC1FastConfig                        0x080026f3   Thumb Code    18  stm32f4xx_tim.o(.text)
    TIM_OC2FastConfig                        0x08002705   Thumb Code    26  stm32f4xx_tim.o(.text)
    TIM_OC3FastConfig                        0x0800271f   Thumb Code    18  stm32f4xx_tim.o(.text)
    TIM_OC4FastConfig                        0x08002731   Thumb Code    26  stm32f4xx_tim.o(.text)
    TIM_ClearOC1Ref                          0x0800274b   Thumb Code    18  stm32f4xx_tim.o(.text)
    TIM_ClearOC2Ref                          0x0800275d   Thumb Code    24  stm32f4xx_tim.o(.text)
    TIM_ClearOC3Ref                          0x08002775   Thumb Code    18  stm32f4xx_tim.o(.text)
    TIM_ClearOC4Ref                          0x08002787   Thumb Code    24  stm32f4xx_tim.o(.text)
    TIM_OC1PolarityConfig                    0x0800279f   Thumb Code    18  stm32f4xx_tim.o(.text)
    TIM_OC1NPolarityConfig                   0x080027b1   Thumb Code    18  stm32f4xx_tim.o(.text)
    TIM_OC2PolarityConfig                    0x080027c3   Thumb Code    26  stm32f4xx_tim.o(.text)
    TIM_OC2NPolarityConfig                   0x080027dd   Thumb Code    26  stm32f4xx_tim.o(.text)
    TIM_OC3PolarityConfig                    0x080027f7   Thumb Code    26  stm32f4xx_tim.o(.text)
    TIM_OC3NPolarityConfig                   0x08002811   Thumb Code    26  stm32f4xx_tim.o(.text)
    TIM_OC4PolarityConfig                    0x0800282b   Thumb Code    26  stm32f4xx_tim.o(.text)
    TIM_CCxCmd                               0x08002845   Thumb Code    30  stm32f4xx_tim.o(.text)
    TIM_CCxNCmd                              0x08002863   Thumb Code    30  stm32f4xx_tim.o(.text)
    TIM_SetIC4Prescaler                      0x08002881   Thumb Code    26  stm32f4xx_tim.o(.text)
    TIM_SetIC3Prescaler                      0x080028eb   Thumb Code    18  stm32f4xx_tim.o(.text)
    TIM_SetIC2Prescaler                      0x08002945   Thumb Code    26  stm32f4xx_tim.o(.text)
    TIM_SetIC1Prescaler                      0x080029b9   Thumb Code    18  stm32f4xx_tim.o(.text)
    TIM_ICInit                               0x08002a05   Thumb Code   110  stm32f4xx_tim.o(.text)
    TIM_ICStructInit                         0x08002a73   Thumb Code    18  stm32f4xx_tim.o(.text)
    TIM_PWMIConfig                           0x08002a85   Thumb Code   124  stm32f4xx_tim.o(.text)
    TIM_GetCapture1                          0x08002b01   Thumb Code     6  stm32f4xx_tim.o(.text)
    TIM_GetCapture2                          0x08002b07   Thumb Code     6  stm32f4xx_tim.o(.text)
    TIM_GetCapture3                          0x08002b0d   Thumb Code     6  stm32f4xx_tim.o(.text)
    TIM_GetCapture4                          0x08002b13   Thumb Code     6  stm32f4xx_tim.o(.text)
    TIM_BDTRConfig                           0x08002b19   Thumb Code    32  stm32f4xx_tim.o(.text)
    TIM_BDTRStructInit                       0x08002b39   Thumb Code    18  stm32f4xx_tim.o(.text)
    TIM_CtrlPWMOutputs                       0x08002b4b   Thumb Code    30  stm32f4xx_tim.o(.text)
    TIM_SelectCOM                            0x08002b69   Thumb Code    24  stm32f4xx_tim.o(.text)
    TIM_CCPreloadControl                     0x08002b81   Thumb Code    24  stm32f4xx_tim.o(.text)
    TIM_ITConfig                             0x08002b99   Thumb Code    18  stm32f4xx_tim.o(.text)
    TIM_GenerateEvent                        0x08002bab   Thumb Code     4  stm32f4xx_tim.o(.text)
    TIM_GetFlagStatus                        0x08002baf   Thumb Code    18  stm32f4xx_tim.o(.text)
    TIM_ClearFlag                            0x08002bc1   Thumb Code     6  stm32f4xx_tim.o(.text)
    TIM_GetITStatus                          0x08002bc7   Thumb Code    34  stm32f4xx_tim.o(.text)
    TIM_ClearITPendingBit                    0x08002be9   Thumb Code     6  stm32f4xx_tim.o(.text)
    TIM_DMAConfig                            0x08002bef   Thumb Code    10  stm32f4xx_tim.o(.text)
    TIM_DMACmd                               0x08002bf9   Thumb Code    18  stm32f4xx_tim.o(.text)
    TIM_SelectCCDMA                          0x08002c0b   Thumb Code    24  stm32f4xx_tim.o(.text)
    TIM_InternalClockConfig                  0x08002c23   Thumb Code    12  stm32f4xx_tim.o(.text)
    TIM_SelectInputTrigger                   0x08002c2f   Thumb Code    18  stm32f4xx_tim.o(.text)
    TIM_ITRxExternalClockConfig              0x08002c41   Thumb Code    24  stm32f4xx_tim.o(.text)
    TIM_TIxExternalClockConfig               0x08002c59   Thumb Code    62  stm32f4xx_tim.o(.text)
    TIM_ETRConfig                            0x08002c97   Thumb Code    28  stm32f4xx_tim.o(.text)
    TIM_ETRClockMode1Config                  0x08002cb3   Thumb Code    54  stm32f4xx_tim.o(.text)
    TIM_ETRClockMode2Config                  0x08002ce9   Thumb Code    32  stm32f4xx_tim.o(.text)
    TIM_SelectOutputTrigger                  0x08002d09   Thumb Code    18  stm32f4xx_tim.o(.text)
    TIM_SelectSlaveMode                      0x08002d1b   Thumb Code    18  stm32f4xx_tim.o(.text)
    TIM_SelectMasterSlaveMode                0x08002d2d   Thumb Code    18  stm32f4xx_tim.o(.text)
    TIM_EncoderInterfaceConfig               0x08002d3f   Thumb Code    66  stm32f4xx_tim.o(.text)
    TIM_SelectHallSensor                     0x08002d81   Thumb Code    24  stm32f4xx_tim.o(.text)
    TIM_RemapConfig                          0x08002d99   Thumb Code     6  stm32f4xx_tim.o(.text)
    OS_TaskStatStkChk                        0x08002da1   Thumb Code    54  os_core.o(.text)
    OS_TaskStat                              0x08002dd7   Thumb Code   116  os_core.o(.text)
    OS_TaskIdle                              0x08002e7f   Thumb Code    34  os_core.o(.text)
    OS_MemClr                                0x08002ed5   Thumb Code    18  os_core.o(.text)
    OSInit                                   0x08002ff3   Thumb Code    44  os_core.o(.text)
    OSIntEnter                               0x0800301f   Thumb Code    28  os_core.o(.text)
    OSIntExit                                0x08003055   Thumb Code   112  os_core.o(.text)
    OSSchedLock                              0x080030c5   Thumb Code    50  os_core.o(.text)
    OS_Sched                                 0x080030f7   Thumb Code    88  os_core.o(.text)
    OSSchedUnlock                            0x0800314f   Thumb Code   238  os_core.o(.text)
    OSStart                                  0x0800323d   Thumb Code    48  os_core.o(.text)
    OSStatInit                               0x0800326d   Thumb Code    62  os_core.o(.text)
    OSTimeTick                               0x080032ab   Thumb Code   210  os_core.o(.text)
    OSVersion                                0x0800337d   Thumb Code     6  os_core.o(.text)
    OS_Dummy                                 0x08003383   Thumb Code     2  os_core.o(.text)
    OS_EventTaskRemove                       0x08003385   Thumb Code    42  os_core.o(.text)
    OS_EventTaskRdy                          0x080033af   Thumb Code   114  os_core.o(.text)
    OS_EventTaskWait                         0x08003421   Thumb Code   112  os_core.o(.text)
    OS_EventWaitListInit                     0x08003491   Thumb Code    28  os_core.o(.text)
    OS_MemCopy                               0x080034ad   Thumb Code    20  os_core.o(.text)
    OS_StrLen                                0x080034c1   Thumb Code    20  os_core.o(.text)
    OS_TCBInit                               0x080034d5   Thumb Code   280  os_core.o(.text)
    OSFlagAccept                             0x08003631   Thumb Code   252  os_flag.o(.text)
    OSFlagCreate                             0x0800372d   Thumb Code    86  os_flag.o(.text)
    OS_FlagUnlink                            0x08003783   Thumb Code    36  os_flag.o(.text)
    OSFlagDel                                0x080037f9   Thumb Code   214  os_flag.o(.text)
    OSFlagNameGet                            0x080038cf   Thumb Code    80  os_flag.o(.text)
    OSFlagNameSet                            0x0800391f   Thumb Code    66  os_flag.o(.text)
    OSFlagPend                               0x080039f9   Thumb Code   614  os_flag.o(.text)
    OSFlagPendGetFlagsRdy                    0x08003c5f   Thumb Code    26  os_flag.o(.text)
    OSFlagPost                               0x08003c79   Thumb Code   312  os_flag.o(.text)
    OSFlagQuery                              0x08003db1   Thumb Code    48  os_flag.o(.text)
    OS_FlagInit                              0x08003de1   Thumb Code    78  os_flag.o(.text)
    OSQAccept                                0x08003e3d   Thumb Code    88  os_q.o(.text)
    OSQCreate                                0x08003e95   Thumb Code   140  os_q.o(.text)
    OSQDel                                   0x08003f21   Thumb Code   236  os_q.o(.text)
    OSQFlush                                 0x0800400d   Thumb Code    36  os_q.o(.text)
    OSQPend                                  0x08004031   Thumb Code   272  os_q.o(.text)
    OSQPendAbort                             0x08004141   Thumb Code   128  os_q.o(.text)
    OSQPost                                  0x080041c1   Thumb Code   114  os_q.o(.text)
    OSQPostFront                             0x08004233   Thumb Code   136  os_q.o(.text)
    OSQPostOpt                               0x080042bb   Thumb Code   182  os_q.o(.text)
    OSQQuery                                 0x08004371   Thumb Code    98  os_q.o(.text)
    OS_QInit                                 0x080043d3   Thumb Code    72  os_q.o(.text)
    OSTaskChangePrio                         0x08004425   Thumb Code   308  os_task.o(.text)
    OSTaskCreate                             0x08004559   Thumb Code   148  os_task.o(.text)
    OS_TaskStkClr                            0x080045ed   Thumb Code    26  os_task.o(.text)
    OSTaskCreateExt                          0x08004607   Thumb Code   170  os_task.o(.text)
    OSTaskDel                                0x080046b1   Thumb Code   294  os_task.o(.text)
    OSTaskDelReq                             0x080047d7   Thumb Code   144  os_task.o(.text)
    OSTaskNameGet                            0x08004867   Thumb Code   114  os_task.o(.text)
    OSTaskNameSet                            0x080048d9   Thumb Code    98  os_task.o(.text)
    OSTaskResume                             0x0800493b   Thumb Code   154  os_task.o(.text)
    OSTaskStkChk                             0x080049d5   Thumb Code   132  os_task.o(.text)
    OSTaskSuspend                            0x08004a59   Thumb Code   152  os_task.o(.text)
    OSTaskQuery                              0x08004af1   Thumb Code    82  os_task.o(.text)
    OSTaskRegGet                             0x08004b43   Thumb Code    60  os_task.o(.text)
    OSTaskRegSet                             0x08004b7f   Thumb Code    62  os_task.o(.text)
    OS_TaskReturn                            0x08004bbd   Thumb Code    18  os_task.o(.text)
    OSTimeDly                                0x08004be9   Thumb Code   100  os_time.o(.text)
    OSTimeDlyHMSM                            0x08004c4d   Thumb Code    86  os_time.o(.text)
    OSTimeDlyResume                          0x08004ca3   Thumb Code   168  os_time.o(.text)
    OSTimeGet                                0x08004d4b   Thumb Code    24  os_time.o(.text)
    OSTimeSet                                0x08004d63   Thumb Code    24  os_time.o(.text)
    OSInitHookBegin                          0x08004d99   Thumb Code     2  os_cpu_c.o(.text)
    OSInitHookEnd                            0x08004d9b   Thumb Code     2  os_cpu_c.o(.text)
    OSTaskCreateHook                         0x08004d9d   Thumb Code     2  os_cpu_c.o(.text)
    OSTaskDelHook                            0x08004d9f   Thumb Code     2  os_cpu_c.o(.text)
    OSTaskIdleHook                           0x08004da1   Thumb Code     2  os_cpu_c.o(.text)
    OSTaskStatHook                           0x08004da3   Thumb Code     2  os_cpu_c.o(.text)
    OSTaskStkInit                            0x08004da5   Thumb Code   426  os_cpu_c.o(.text)
    OSTaskSwHook                             0x08004f4f   Thumb Code     2  os_cpu_c.o(.text)
    OSTCBInitHook                            0x08004f51   Thumb Code     2  os_cpu_c.o(.text)
    OSTimeTickHook                           0x08004f53   Thumb Code     2  os_cpu_c.o(.text)
    OSTaskReturnHook                         0x08004f55   Thumb Code     2  os_cpu_c.o(.text)
    OS_CPU_SR_Save                           0x08004f5d   Thumb Code     0  os_cpu_a.o(.text)
    OS_CPU_SR_Restore                        0x08004f65   Thumb Code     0  os_cpu_a.o(.text)
    OSStartHighRdy                           0x08004f6b   Thumb Code     0  os_cpu_a.o(.text)
    OSCtxSw                                  0x08004f8f   Thumb Code     0  os_cpu_a.o(.text)
    OSIntCtxSw                               0x08004f9d   Thumb Code     0  os_cpu_a.o(.text)
    PendSV_Handler                           0x08004fad   Thumb Code     0  os_cpu_a.o(.text)
    debug_usart_init                         0x08005025   Thumb Code    12  wiz_platform.o(.text)
    wiz_timer_init                           0x08005031   Thumb Code    14  wiz_platform.o(.text)
    wiz_spi_init                             0x0800503f   Thumb Code    72  wiz_platform.o(.text)
    wiz_rst_int_init                         0x08005087   Thumb Code    80  wiz_platform.o(.text)
    delay_s                                  0x080050d7   Thumb Code    24  wiz_platform.o(.text)
    wizchip_select                           0x080050ef   Thumb Code    12  wiz_platform.o(.text)
    wizchip_deselect                         0x080050fb   Thumb Code    12  wiz_platform.o(.text)
    wizchip_write_byte                       0x08005107   Thumb Code    12  wiz_platform.o(.text)
    wizchip_read_byte                        0x08005113   Thumb Code    10  wiz_platform.o(.text)
    wizchip_write_buff                       0x0800511d   Thumb Code    28  wiz_platform.o(.text)
    wizchip_read_buff                        0x08005139   Thumb Code    28  wiz_platform.o(.text)
    wizchip_reset                            0x08005155   Thumb Code    46  wiz_platform.o(.text)
    wizchip_spi_cb_reg                       0x08005183   Thumb Code    40  wiz_platform.o(.text)
    TIM3_IRQHandler                          0x080051ab   Thumb Code    54  wiz_platform.o(.text)
    wizchip_version_check                    0x080051ed   Thumb Code    70  wiz_interface.o(.text)
    wiz_print_phy_info                       0x08005233   Thumb Code    54  wiz_interface.o(.text)
    wiz_phy_link_check                       0x08005269   Thumb Code    56  wiz_interface.o(.text)
    wizchip_initialize                       0x080052a1   Thumb Code    20  wiz_interface.o(.text)
    print_network_information                0x080052b5   Thumb Code   190  wiz_interface.o(.text)
    network_init                             0x08005405   Thumb Code    46  wiz_interface.o(.text)
    close                                    0x080055ed   Thumb Code   142  socket.o(.text)
    socket                                   0x0800567b   Thumb Code   384  socket.o(.text)
    listen                                   0x080057fb   Thumb Code   158  socket.o(.text)
    connect                                  0x08005899   Thumb Code   342  socket.o(.text)
    disconnect                               0x080059ef   Thumb Code   202  socket.o(.text)
    send                                     0x08005ab9   Thumb Code   374  socket.o(.text)
    recv                                     0x08005c2f   Thumb Code   282  socket.o(.text)
    sendto                                   0x08005d49   Thumb Code   530  socket.o(.text)
    recvfrom                                 0x08005f5b   Thumb Code   768  socket.o(.text)
    ctlsocket                                0x0800625b   Thumb Code   308  socket.o(.text)
    setsockopt                               0x0800638f   Thumb Code   398  socket.o(.text)
    getsockopt                               0x0800651d   Thumb Code   408  socket.o(.text)
    wizchip_cris_enter                       0x080066b9   Thumb Code     2  wizchip_conf.o(.text)
    wizchip_cris_exit                        0x080066bb   Thumb Code     2  wizchip_conf.o(.text)
    wizchip_cs_select                        0x080066bd   Thumb Code     2  wizchip_conf.o(.text)
    wizchip_cs_deselect                      0x080066bf   Thumb Code     2  wizchip_conf.o(.text)
    wizchip_bus_readdata                     0x080066c1   Thumb Code     6  wizchip_conf.o(.text)
    wizchip_bus_writedata                    0x080066c7   Thumb Code     4  wizchip_conf.o(.text)
    wizchip_spi_readbyte                     0x080066cb   Thumb Code     4  wizchip_conf.o(.text)
    wizchip_spi_writebyte                    0x080066cf   Thumb Code     2  wizchip_conf.o(.text)
    wizchip_spi_readburst                    0x080066d1   Thumb Code     2  wizchip_conf.o(.text)
    wizchip_spi_writeburst                   0x080066d3   Thumb Code     2  wizchip_conf.o(.text)
    reg_wizchip_cris_cbfunc                  0x080066d5   Thumb Code    30  wizchip_conf.o(.text)
    reg_wizchip_cs_cbfunc                    0x080066f3   Thumb Code    30  wizchip_conf.o(.text)
    reg_wizchip_bus_cbfunc                   0x08006711   Thumb Code    44  wizchip_conf.o(.text)
    reg_wizchip_spi_cbfunc                   0x0800673d   Thumb Code    44  wizchip_conf.o(.text)
    reg_wizchip_spiburst_cbfunc              0x08006769   Thumb Code    42  wizchip_conf.o(.text)
    wizphy_getphylink                        0x08006793   Thumb Code    24  wizchip_conf.o(.text)
    wizphy_getphypmode                       0x080067ab   Thumb Code    30  wizchip_conf.o(.text)
    wizphy_reset                             0x080067c9   Thumb Code    52  wizchip_conf.o(.text)
    wizphy_setphypmode                       0x080067fd   Thumb Code   100  wizchip_conf.o(.text)
    wizphy_getphyconf                        0x08006861   Thumb Code   120  wizchip_conf.o(.text)
    wizphy_setphyconf                        0x080068d9   Thumb Code    88  wizchip_conf.o(.text)
    wizchip_getinterruptmask                 0x08006931   Thumb Code    40  wizchip_conf.o(.text)
    wizchip_setinterruptmask                 0x08006959   Thumb Code    30  wizchip_conf.o(.text)
    wizchip_getinterrupt                     0x08006977   Thumb Code    42  wizchip_conf.o(.text)
    wizchip_clrinterrupt                     0x080069a1   Thumb Code    60  wizchip_conf.o(.text)
    wizchip_sw_reset                         0x080069dd   Thumb Code   114  wizchip_conf.o(.text)
    wizchip_init                             0x08006a4f   Thumb Code   148  wizchip_conf.o(.text)
    ctlwizchip                               0x08006ae3   Thumb Code   282  wizchip_conf.o(.text)
    wizchip_gettimeout                       0x08006bfd   Thumb Code    40  wizchip_conf.o(.text)
    wizchip_settimeout                       0x08006c25   Thumb Code    38  wizchip_conf.o(.text)
    wizchip_getnetmode                       0x08006c4b   Thumb Code    10  wizchip_conf.o(.text)
    wizchip_setnetmode                       0x08006c55   Thumb Code    38  wizchip_conf.o(.text)
    wizchip_getnetinfo                       0x08006c7b   Thumb Code    82  wizchip_conf.o(.text)
    wizchip_setnetinfo                       0x08006ccd   Thumb Code    80  wizchip_conf.o(.text)
    ctlnetwork                               0x08006d1d   Thumb Code    80  wizchip_conf.o(.text)
    wizphy_getphystat                        0x08006d6d   Thumb Code    28  wizchip_conf.o(.text)
    WIZCHIP_READ                             0x08006d95   Thumb Code   112  w5500.o(.text)
    WIZCHIP_WRITE                            0x08006e05   Thumb Code   112  w5500.o(.text)
    WIZCHIP_READ_BUF                         0x08006e75   Thumb Code   136  w5500.o(.text)
    WIZCHIP_WRITE_BUF                        0x08006efd   Thumb Code   132  w5500.o(.text)
    getSn_TX_FSR                             0x08006f81   Thumb Code   108  w5500.o(.text)
    getSn_RX_RSR                             0x08006fed   Thumb Code   108  w5500.o(.text)
    wiz_send_data                            0x08007059   Thumb Code   132  w5500.o(.text)
    wiz_recv_data                            0x080070dd   Thumb Code   132  w5500.o(.text)
    wiz_recv_ignore                          0x08007161   Thumb Code   110  w5500.o(.text)
    default_ip_assign                        0x080071d1   Thumb Code    38  dhcp.o(.text)
    default_ip_update                        0x080071f7   Thumb Code    34  dhcp.o(.text)
    default_ip_conflict                      0x08007219   Thumb Code    30  dhcp.o(.text)
    reg_dhcp_cbfunc                          0x08007237   Thumb Code    46  dhcp.o(.text)
    makeDHCPMSG                              0x08007265   Thumb Code   386  dhcp.o(.text)
    NibbleToHex                              0x080073e7   Thumb Code    26  dhcp.o(.text)
    send_DHCP_DISCOVER                       0x08007401   Thumb Code   688  dhcp.o(.text)
    send_DHCP_REQUEST                        0x080076b1   Thumb Code  1000  dhcp.o(.text)
    send_DHCP_DECLINE                        0x08007a99   Thumb Code   492  dhcp.o(.text)
    parseDHCPMSG                             0x08007c85   Thumb Code   636  dhcp.o(.text)
    reset_DHCP_timeout                       0x08007f01   Thumb Code    20  dhcp.o(.text)
    check_DHCP_timeout                       0x08007f15   Thumb Code   154  dhcp.o(.text)
    check_DHCP_leasedIP                      0x08007faf   Thumb Code    88  dhcp.o(.text)
    DHCP_run                                 0x08008007   Thumb Code   424  dhcp.o(.text)
    DHCP_stop                                0x080081af   Thumb Code    18  dhcp.o(.text)
    DHCP_init                                0x080081c1   Thumb Code   294  dhcp.o(.text)
    DHCP_time_handler                        0x080082e7   Thumb Code    12  dhcp.o(.text)
    getIPfromDHCP                            0x080082f3   Thumb Code    26  dhcp.o(.text)
    getGWfromDHCP                            0x0800830d   Thumb Code    26  dhcp.o(.text)
    getSNfromDHCP                            0x08008327   Thumb Code    26  dhcp.o(.text)
    getDNSfromDHCP                           0x08008341   Thumb Code    26  dhcp.o(.text)
    getDHCPLeasetime                         0x0800835b   Thumb Code     6  dhcp.o(.text)
    tcp_srv_init                             0x080084a7   Thumb Code   158  modtcpbsp.o(.text)
    tcp_srv_close                            0x08008545   Thumb Code    96  modtcpbsp.o(.text)
    tcp_srv_close_all                        0x080085a5   Thumb Code    32  modtcpbsp.o(.text)
    tcp_srv_deinit                           0x080085c5   Thumb Code    18  modtcpbsp.o(.text)
    tcp_srv_poll                             0x080085d7   Thumb Code   932  modtcpbsp.o(.text)
    tcp_srv_peek                             0x0800897b   Thumb Code    78  modtcpbsp.o(.text)
    tcp_srv_read                             0x080089c9   Thumb Code   114  modtcpbsp.o(.text)
    tcp_srv_send                             0x08008a3b   Thumb Code   158  modtcpbsp.o(.text)
    tcp_srv_set_keepalive                    0x08008ad9   Thumb Code    44  modtcpbsp.o(.text)
    tcp_srv_link_state                       0x08008b05   Thumb Code    30  modtcpbsp.o(.text)
    tcp_srv_single_init                      0x08008b23   Thumb Code    12  modtcpbsp.o(.text)
    tcp_srv_single_deinit                    0x08008b2f   Thumb Code     8  modtcpbsp.o(.text)
    tcp_srv_single_set_keepalive             0x08008b37   Thumb Code    12  modtcpbsp.o(.text)
    tcp_srv_single_close                     0x08008b43   Thumb Code     8  modtcpbsp.o(.text)
    tcp_srv_single_is_connected              0x08008b4b   Thumb Code     8  modtcpbsp.o(.text)
    tcp_srv_single_get_client_sn             0x08008b53   Thumb Code     4  modtcpbsp.o(.text)
    tcp_srv_single_get_rx_buffer_usage       0x08008b57   Thumb Code     8  modtcpbsp.o(.text)
    tcp_srv_single_get_rx_buffer_size        0x08008b5f   Thumb Code     6  modtcpbsp.o(.text)
    tcp_srv_single_peek                      0x08008b65   Thumb Code    40  modtcpbsp.o(.text)
    tcp_srv_single_read                      0x08008b8d   Thumb Code    22  modtcpbsp.o(.text)
    tcp_srv_single_send                      0x08008ba3   Thumb Code    18  modtcpbsp.o(.text)
    eMBRegHoldingCB                          0x08008ca1   Thumb Code   116  mb_user_reg.o(.text)
    eMBRegInputCB                            0x08008d15   Thumb Code    68  mb_user_reg.o(.text)
    eMBRegCoilsCB                            0x08008d59   Thumb Code   274  mb_user_reg.o(.text)
    eMBRegDiscreteCB                         0x08008e6b   Thumb Code   130  mb_user_reg.o(.text)
    MBUSR_Init                               0x08008eed   Thumb Code     2  mb_user_reg.o(.text)
    MBUSR_SetHoldingIdx                      0x08008eef   Thumb Code    34  mb_user_reg.o(.text)
    MBUSR_GetHoldingIdx                      0x08008f11   Thumb Code    44  mb_user_reg.o(.text)
    MBUSR_SetHoldingByAddr                   0x08008f3d   Thumb Code    28  mb_user_reg.o(.text)
    MBUSR_GetHoldingByAddr                   0x08008f59   Thumb Code    28  mb_user_reg.o(.text)
    MBUSR_SetInputIdx                        0x08008f75   Thumb Code    34  mb_user_reg.o(.text)
    MBUSR_GetInputIdx                        0x08008f97   Thumb Code    44  mb_user_reg.o(.text)
    MBUSR_SetInputByAddr                     0x08008fc3   Thumb Code    28  mb_user_reg.o(.text)
    MBUSR_GetInputByAddr                     0x08008fdf   Thumb Code    28  mb_user_reg.o(.text)
    MBUSR_SetCoilIdx                         0x08008ffb   Thumb Code    92  mb_user_reg.o(.text)
    MBUSR_GetCoilIdx                         0x08009057   Thumb Code   114  mb_user_reg.o(.text)
    MBUSR_SetCoilByAddr                      0x080090c9   Thumb Code    28  mb_user_reg.o(.text)
    MBUSR_GetCoilByAddr                      0x080090e5   Thumb Code    28  mb_user_reg.o(.text)
    MBUSR_SetDiscreteIdx                     0x08009101   Thumb Code    92  mb_user_reg.o(.text)
    MBUSR_GetDiscreteIdx                     0x0800915d   Thumb Code    92  mb_user_reg.o(.text)
    MBUSR_SetDiscreteByAddr                  0x080091b9   Thumb Code    28  mb_user_reg.o(.text)
    MBUSR_GetDiscreteByAddr                  0x080091d5   Thumb Code    28  mb_user_reg.o(.text)
    eMBInit                                  0x080091f5   Thumb Code    72  mb.o(.text)
    eMBTCPInit                               0x0800923d   Thumb Code    86  mb.o(.text)
    eMBRegisterCB                            0x08009293   Thumb Code   138  mb.o(.text)
    eMBClose                                 0x0800931d   Thumb Code    32  mb.o(.text)
    eMBEnable                                0x0800933d   Thumb Code    32  mb.o(.text)
    eMBDisable                               0x0800935d   Thumb Code    42  mb.o(.text)
    eMBPoll                                  0x08009387   Thumb Code   258  mb.o(.text)
    eMBFuncReadCoils                         0x080094d1   Thumb Code   174  mbfunccoils.o(.text)
    eMBFuncWriteCoil                         0x0800957f   Thumb Code   112  mbfunccoils.o(.text)
    eMBFuncWriteMultipleCoils                0x080095ef   Thumb Code   144  mbfunccoils.o(.text)
    eMBFuncReadDiscreteInputs                0x0800967f   Thumb Code   172  mbfuncdisc.o(.text)
    eMBFuncWriteHoldingRegister              0x0800972b   Thumb Code    66  mbfuncholding.o(.text)
    eMBFuncWriteMultipleHoldingRegister      0x0800976d   Thumb Code   110  mbfuncholding.o(.text)
    eMBFuncReadHoldingRegister               0x080097db   Thumb Code   142  mbfuncholding.o(.text)
    eMBFuncReadWriteMultipleHoldingRegister  0x08009869   Thumb Code   212  mbfuncholding.o(.text)
    eMBFuncReadInputRegister                 0x0800993d   Thumb Code   140  mbfuncinput.o(.text)
    eMBSetSlaveID                            0x080099c9   Thumb Code   110  mbfuncother.o(.text)
    eMBFuncReportSlaveID                     0x08009a37   Thumb Code    30  mbfuncother.o(.text)
    xMBUtilSetBits                           0x08009a5d   Thumb Code    96  mbutils.o(.text)
    xMBUtilGetBits                           0x08009abd   Thumb Code    42  mbutils.o(.text)
    prveMBError2Exception                    0x08009ae7   Thumb Code    34  mbutils.o(.text)
    eMBTCPDoInit                             0x08009b09   Thumb Code    20  mbtcp.o(.text)
    eMBTCPStart                              0x08009b1d   Thumb Code     2  mbtcp.o(.text)
    eMBTCPStop                               0x08009b1f   Thumb Code     8  mbtcp.o(.text)
    eMBTCPReceive                            0x08009b27   Thumb Code    72  mbtcp.o(.text)
    eMBTCPSend                               0x08009b6f   Thumb Code    48  mbtcp.o(.text)
    xMBPortEventInit                         0x08009ba1   Thumb Code    10  portevent.o(.text)
    xMBPortEventPost                         0x08009bab   Thumb Code    16  portevent.o(.text)
    xMBPortEventGet                          0x08009bbb   Thumb Code    36  portevent.o(.text)
    xMBTCPPortInit                           0x08009e83   Thumb Code    60  porttcp.o(.text)
    vMBTCPPortClose                          0x08009ebf   Thumb Code    34  porttcp.o(.text)
    vMBTCPPortDisable                        0x08009ee1   Thumb Code    34  porttcp.o(.text)
    vMBPortTCPPool                           0x08009f03   Thumb Code    16  porttcp.o(.text)
    xMBTCPPortGetRequest                     0x08009f13   Thumb Code    40  porttcp.o(.text)
    xMBTCPPortSendResponse                   0x08009f3b   Thumb Code    40  porttcp.o(.text)
    EnterCriticalSection                     0x08009f63   Thumb Code     4  porttcp.o(.text)
    ExitCriticalSection                      0x08009f67   Thumb Code     4  porttcp.o(.text)
    xMBPortTCPPool                           0x08009f6b   Thumb Code     8  porttcp.o(.text)
    __use_no_semihosting                     0x0800a071   Thumb Code     2  use_no_semi_2.o(.text)
    __2printf                                0x0800a075   Thumb Code    20  noretval__2printf.o(.text)
    _printf_pre_padding                      0x0800a08d   Thumb Code    44  _printf_pad.o(.text)
    _printf_post_padding                     0x0800a0b9   Thumb Code    34  _printf_pad.o(.text)
    _printf_str                              0x0800a0db   Thumb Code    82  _printf_str.o(.text)
    _printf_int_dec                          0x0800a12d   Thumb Code   104  _printf_dec.o(.text)
    _printf_int_hex                          0x0800a1a5   Thumb Code    84  _printf_hex_int.o(.text)
    _printf_longlong_hex                     0x0800a1a5   Thumb Code     0  _printf_hex_int.o(.text)
    __printf                                 0x0800a1fd   Thumb Code   388  __printf_flags_ss_wp.o(.text)
    __aeabi_memcpy                           0x0800a385   Thumb Code     0  rt_memcpy_v6.o(.text)
    __rt_memcpy                              0x0800a385   Thumb Code   138  rt_memcpy_v6.o(.text)
    _memcpy_lastbytes                        0x0800a3eb   Thumb Code     0  rt_memcpy_v6.o(.text)
    __aeabi_memmove                          0x0800a40f   Thumb Code     0  rt_memmove_v6.o(.text)
    __rt_memmove                             0x0800a40f   Thumb Code   132  rt_memmove_v6.o(.text)
    __memmove_lastfew                        0x0800a46f   Thumb Code     0  rt_memmove_v6.o(.text)
    __use_two_region_memory                  0x0800a493   Thumb Code     2  heapauxi.o(.text)
    __rt_heap_escrow$2region                 0x0800a495   Thumb Code     2  heapauxi.o(.text)
    __rt_heap_expand$2region                 0x0800a497   Thumb Code     2  heapauxi.o(.text)
    __I$use$semihosting                      0x0800a499   Thumb Code     0  use_no_semi.o(.text)
    __use_no_semihosting_swi                 0x0800a499   Thumb Code     2  use_no_semi.o(.text)
    _printf_int_common                       0x0800a49b   Thumb Code   178  _printf_intcommon.o(.text)
    _printf_cs_common                        0x0800a54d   Thumb Code    20  _printf_char.o(.text)
    _printf_char                             0x0800a561   Thumb Code    16  _printf_char.o(.text)
    _printf_string                           0x0800a571   Thumb Code     8  _printf_char.o(.text)
    _printf_char_file                        0x0800a579   Thumb Code    32  _printf_char_file.o(.text)
    __aeabi_memcpy4                          0x0800a59d   Thumb Code     0  rt_memcpy_w.o(.text)
    __aeabi_memcpy8                          0x0800a59d   Thumb Code     0  rt_memcpy_w.o(.text)
    __rt_memcpy_w                            0x0800a59d   Thumb Code   100  rt_memcpy_w.o(.text)
    _memcpy_lastbytes_aligned                0x0800a5e5   Thumb Code     0  rt_memcpy_w.o(.text)
    __aeabi_memmove4                         0x0800a601   Thumb Code     0  rt_memmove_w.o(.text)
    __aeabi_memmove8                         0x0800a601   Thumb Code     0  rt_memmove_w.o(.text)
    __rt_memmove_w                           0x0800a601   Thumb Code   122  rt_memmove_w.o(.text)
    __memmove_aligned                        0x0800a627   Thumb Code     0  rt_memmove_w.o(.text)
    __memmove_lastfew_aligned                0x0800a65f   Thumb Code     0  rt_memmove_w.o(.text)
    _printf_char_common                      0x0800a687   Thumb Code    32  _printf_char_common.o(.text)
    ferror                                   0x0800a6ad   Thumb Code     8  ferror.o(.text)
    __user_setup_stackheap                   0x0800a6b5   Thumb Code    74  sys_stackheap_outer.o(.text)
    exit                                     0x0800a6ff   Thumb Code    18  exit.o(.text)
    __user_libspace                          0x0800a711   Thumb Code     8  libspace.o(.text)
    __user_perproc_libspace                  0x0800a711   Thumb Code     0  libspace.o(.text)
    __user_perthread_libspace                0x0800a711   Thumb Code     0  libspace.o(.text)
    _is_digit                                0x0800a719   Thumb Code    14  __printf_wp.o(i._is_digit)
    _fp_init                                 0x0800a727   Thumb Code    10  fpinit.o(x$fpl$fpinit)
    __fplib_config_fpu_vfp                   0x0800a72f   Thumb Code     0  fpinit.o(x$fpl$fpinit)
    __fplib_config_pureend_doubles           0x0800a72f   Thumb Code     0  fpinit.o(x$fpl$fpinit)
    OSUnMapTbl                               0x0800a730   Data         256  os_core.o(.constdata)
    Region$$Table$$Base                      0x0800a984   Number         0  anon$$obj.o(Region$$Table)
    Region$$Table$$Limit                     0x0800a9a4   Number         0  anon$$obj.o(Region$$Table)
    SystemCoreClock                          0x20000000   Data           4  system_stm32f4xx.o(.data)
    AHBPrescTable                            0x20000004   Data          16  system_stm32f4xx.o(.data)
    default_net_info                         0x20000014   Data          23  task_tcp.o(.data)
    local_port                               0x2000002c   Data           2  task_tcp.o(.data)
    __stdout                                 0x2000003c   Data           4  usart.o(.data)
    USART_RX_STA                             0x20000040   Data           2  usart.o(.data)
    OSCtxSwCtr                               0x20000054   Data           4  os_core.o(.data)
    OSEventFreeList                          0x20000058   Data           4  os_core.o(.data)
    OSFlagFreeList                           0x2000005c   Data           4  os_core.o(.data)
    OSCPUUsage                               0x20000060   Data           1  os_core.o(.data)
    OSIdleCtrMax                             0x20000064   Data           4  os_core.o(.data)
    OSIdleCtrRun                             0x20000068   Data           4  os_core.o(.data)
    OSStatRdy                                0x2000006c   Data           1  os_core.o(.data)
    OSIntNesting                             0x2000006d   Data           1  os_core.o(.data)
    OSLockNesting                            0x2000006e   Data           1  os_core.o(.data)
    OSPrioCur                                0x2000006f   Data           1  os_core.o(.data)
    OSPrioHighRdy                            0x20000070   Data           1  os_core.o(.data)
    OSRdyGrp                                 0x20000071   Data           1  os_core.o(.data)
    OSRdyTbl                                 0x20000072   Data           8  os_core.o(.data)
    OSRunning                                0x2000007a   Data           1  os_core.o(.data)
    OSTaskCtr                                0x2000007b   Data           1  os_core.o(.data)
    OSIdleCtr                                0x2000007c   Data           4  os_core.o(.data)
    OSTCBCur                                 0x20000080   Data           4  os_core.o(.data)
    OSTCBFreeList                            0x20000084   Data           4  os_core.o(.data)
    OSTCBHighRdy                             0x20000088   Data           4  os_core.o(.data)
    OSTCBList                                0x2000008c   Data           4  os_core.o(.data)
    OSTickStepState                          0x20000090   Data           1  os_core.o(.data)
    OSQFreeList                              0x20000094   Data           4  os_core.o(.data)
    OSTime                                   0x20000098   Data           4  os_core.o(.data)
    sock_pack_info                           0x200000a6   Data           8  socket.o(.data)
    WIZCHIP                                  0x200000b0   Data          44  wizchip_conf.o(.data)
    DHCP_SOCKET                              0x200000e4   Data           1  dhcp.o(.data)
    DHCP_SIP                                 0x200000e5   Data           4  dhcp.o(.data)
    DHCP_REAL_SIP                            0x200000e9   Data           4  dhcp.o(.data)
    OLD_allocated_ip                         0x200000ed   Data           4  dhcp.o(.data)
    DHCP_allocated_ip                        0x200000f1   Data           4  dhcp.o(.data)
    DHCP_allocated_gw                        0x200000f5   Data           4  dhcp.o(.data)
    DHCP_allocated_sn                        0x200000f9   Data           4  dhcp.o(.data)
    DHCP_allocated_dns                       0x200000fd   Data           4  dhcp.o(.data)
    dhcp_state                               0x20000101   Data           1  dhcp.o(.data)
    dhcp_retry_count                         0x20000102   Data           1  dhcp.o(.data)
    dhcp_lease_time                          0x20000104   Data           4  dhcp.o(.data)
    dhcp_tick_1s                             0x20000108   Data           4  dhcp.o(.data)
    dhcp_tick_next                           0x2000010c   Data           4  dhcp.o(.data)
    DHCP_XID                                 0x20000110   Data           4  dhcp.o(.data)
    pDHCPMSG                                 0x20000114   Data           4  dhcp.o(.data)
    HOST_NAME                                0x20000118   Data           8  dhcp.o(.data)
    DHCP_CHADDR                              0x20000120   Data           6  dhcp.o(.data)
    dhcp_ip_assign                           0x20000128   Data           4  dhcp.o(.data)
    dhcp_ip_update                           0x2000012c   Data           4  dhcp.o(.data)
    dhcp_ip_conflict                         0x20000130   Data           4  dhcp.o(.data)
    pxMBFrameCBByteReceived                  0x20000160   Data           4  mb.o(.data)
    pxMBFrameCBTransmitterEmpty              0x20000164   Data           4  mb.o(.data)
    pxMBPortCBTimerExpired                   0x20000168   Data           4  mb.o(.data)
    pxMBFrameCBReceiveFSMCur                 0x2000016c   Data           4  mb.o(.data)
    pxMBFrameCBTransmitFSMCur                0x20000170   Data           4  mb.o(.data)
    START_TASK_STK                           0x20000210   Data         256  main.o(.bss)
    TCP_TASK_STK                             0x20000310   Data         256  task_tcp.o(.bss)
    LED1_TASK_STK                            0x20000410   Data         256  task_tcp.o(.bss)
    ethernet_buf                             0x20000510   Data        2048  task_tcp.o(.bss)
    USART_RX_BUF                             0x20000e14   Data         200  usart.o(.bss)
    OSEventTbl                               0x20000edc   Data         200  os_core.o(.bss)
    OSFlagTbl                                0x20000fa4   Data          80  os_core.o(.bss)
    OSTaskStatStk                            0x20000ff4   Data         512  os_core.o(.bss)
    OSTaskIdleStk                            0x200011f4   Data         512  os_core.o(.bss)
    OSTCBPrioTbl                             0x200013f4   Data         256  os_core.o(.bss)
    OSTCBTbl                                 0x200014f4   Data        1008  os_core.o(.bss)
    OSQTbl                                   0x200018e4   Data         120  os_core.o(.bss)
    __libspace_start                         0x20002658   Data          96  libspace.o(.bss)
    __temporary_stack_top$libspace           0x200026b8   Data           0  libspace.o(.bss)



==============================================================================

Memory Map of the image

  Image Entry point : 0x08000189

  Load Region LR_IROM1 (Base: 0x08000000, Size: 0x0000abb4, Max: 0x00100000, ABSOLUTE, COMPRESSED[0x0000aa50])

    Execution Region ER_IROM1 (Exec base: 0x08000000, Load base: 0x08000000, Size: 0x0000a9a4, Max: 0x00100000, ABSOLUTE)

    Exec Addr    Load Addr    Size         Type   Attr      Idx    E Section Name        Object

    0x08000000   0x08000000   0x00000188   Data   RO          630    RESET               startup_stm32f40_41xxx.o
    0x08000188   0x08000188   0x00000008   Code   RO         1651  * !!!main             c_w.l(__main.o)
    0x08000190   0x08000190   0x00000034   Code   RO         1844    !!!scatter          c_w.l(__scatter.o)
    0x080001c4   0x080001c4   0x0000005a   Code   RO         1842    !!dczerorl2         c_w.l(__dczerorl2.o)
    0x0800021e   0x0800021e   0x00000002   PAD
    0x08000220   0x08000220   0x0000001c   Code   RO         1846    !!handler_zi        c_w.l(__scatter_zi.o)
    0x0800023c   0x0800023c   0x00000000   Code   RO         1644    .ARM.Collect$$_printf_percent$$00000000  c_w.l(_printf_percent.o)
    0x0800023c   0x0800023c   0x00000006   Code   RO         1642    .ARM.Collect$$_printf_percent$$00000009  c_w.l(_printf_d.o)
    0x08000242   0x08000242   0x00000006   Code   RO         1643    .ARM.Collect$$_printf_percent$$0000000A  c_w.l(_printf_u.o)
    0x08000248   0x08000248   0x00000006   Code   RO         1641    .ARM.Collect$$_printf_percent$$0000000C  c_w.l(_printf_x.o)
    0x0800024e   0x0800024e   0x00000006   Code   RO         1640    .ARM.Collect$$_printf_percent$$00000014  c_w.l(_printf_s.o)
    0x08000254   0x08000254   0x00000004   Code   RO         1674    .ARM.Collect$$_printf_percent$$00000017  c_w.l(_printf_percent_end.o)
    0x08000258   0x08000258   0x00000002   Code   RO         1716    .ARM.Collect$$libinit$$00000000  c_w.l(libinit.o)
    0x0800025a   0x0800025a   0x00000004   Code   RO         1722    .ARM.Collect$$libinit$$00000001  c_w.l(libinit2.o)
    0x0800025e   0x0800025e   0x00000000   Code   RO         1725    .ARM.Collect$$libinit$$00000004  c_w.l(libinit2.o)
    0x0800025e   0x0800025e   0x00000000   Code   RO         1728    .ARM.Collect$$libinit$$0000000A  c_w.l(libinit2.o)
    0x0800025e   0x0800025e   0x00000000   Code   RO         1730    .ARM.Collect$$libinit$$0000000C  c_w.l(libinit2.o)
    0x0800025e   0x0800025e   0x00000000   Code   RO         1732    .ARM.Collect$$libinit$$0000000E  c_w.l(libinit2.o)
    0x0800025e   0x0800025e   0x00000000   Code   RO         1735    .ARM.Collect$$libinit$$00000011  c_w.l(libinit2.o)
    0x0800025e   0x0800025e   0x00000000   Code   RO         1737    .ARM.Collect$$libinit$$00000013  c_w.l(libinit2.o)
    0x0800025e   0x0800025e   0x00000000   Code   RO         1739    .ARM.Collect$$libinit$$00000015  c_w.l(libinit2.o)
    0x0800025e   0x0800025e   0x00000000   Code   RO         1741    .ARM.Collect$$libinit$$00000017  c_w.l(libinit2.o)
    0x0800025e   0x0800025e   0x00000000   Code   RO         1743    .ARM.Collect$$libinit$$00000019  c_w.l(libinit2.o)
    0x0800025e   0x0800025e   0x00000000   Code   RO         1745    .ARM.Collect$$libinit$$0000001B  c_w.l(libinit2.o)
    0x0800025e   0x0800025e   0x00000000   Code   RO         1747    .ARM.Collect$$libinit$$0000001D  c_w.l(libinit2.o)
    0x0800025e   0x0800025e   0x00000000   Code   RO         1749    .ARM.Collect$$libinit$$0000001F  c_w.l(libinit2.o)
    0x0800025e   0x0800025e   0x00000000   Code   RO         1751    .ARM.Collect$$libinit$$00000021  c_w.l(libinit2.o)
    0x0800025e   0x0800025e   0x00000000   Code   RO         1753    .ARM.Collect$$libinit$$00000023  c_w.l(libinit2.o)
    0x0800025e   0x0800025e   0x00000000   Code   RO         1755    .ARM.Collect$$libinit$$00000025  c_w.l(libinit2.o)
    0x0800025e   0x0800025e   0x00000000   Code   RO         1759    .ARM.Collect$$libinit$$0000002C  c_w.l(libinit2.o)
    0x0800025e   0x0800025e   0x00000000   Code   RO         1761    .ARM.Collect$$libinit$$0000002E  c_w.l(libinit2.o)
    0x0800025e   0x0800025e   0x00000000   Code   RO         1763    .ARM.Collect$$libinit$$00000030  c_w.l(libinit2.o)
    0x0800025e   0x0800025e   0x00000000   Code   RO         1765    .ARM.Collect$$libinit$$00000032  c_w.l(libinit2.o)
    0x0800025e   0x0800025e   0x00000002   Code   RO         1766    .ARM.Collect$$libinit$$00000033  c_w.l(libinit2.o)
    0x08000260   0x08000260   0x00000002   Code   RO         1784    .ARM.Collect$$libshutdown$$00000000  c_w.l(libshutdown.o)
    0x08000262   0x08000262   0x00000000   Code   RO         1794    .ARM.Collect$$libshutdown$$00000002  c_w.l(libshutdown2.o)
    0x08000262   0x08000262   0x00000000   Code   RO         1796    .ARM.Collect$$libshutdown$$00000004  c_w.l(libshutdown2.o)
    0x08000262   0x08000262   0x00000000   Code   RO         1799    .ARM.Collect$$libshutdown$$00000007  c_w.l(libshutdown2.o)
    0x08000262   0x08000262   0x00000000   Code   RO         1802    .ARM.Collect$$libshutdown$$0000000A  c_w.l(libshutdown2.o)
    0x08000262   0x08000262   0x00000000   Code   RO         1804    .ARM.Collect$$libshutdown$$0000000C  c_w.l(libshutdown2.o)
    0x08000262   0x08000262   0x00000000   Code   RO         1807    .ARM.Collect$$libshutdown$$0000000F  c_w.l(libshutdown2.o)
    0x08000262   0x08000262   0x00000002   Code   RO         1808    .ARM.Collect$$libshutdown$$00000010  c_w.l(libshutdown2.o)
    0x08000264   0x08000264   0x00000000   Code   RO         1667    .ARM.Collect$$rtentry$$00000000  c_w.l(__rtentry.o)
    0x08000264   0x08000264   0x00000000   Code   RO         1685    .ARM.Collect$$rtentry$$00000002  c_w.l(__rtentry2.o)
    0x08000264   0x08000264   0x00000006   Code   RO         1697    .ARM.Collect$$rtentry$$00000004  c_w.l(__rtentry4.o)
    0x0800026a   0x0800026a   0x00000000   Code   RO         1687    .ARM.Collect$$rtentry$$00000009  c_w.l(__rtentry2.o)
    0x0800026a   0x0800026a   0x00000004   Code   RO         1688    .ARM.Collect$$rtentry$$0000000A  c_w.l(__rtentry2.o)
    0x0800026e   0x0800026e   0x00000000   Code   RO         1690    .ARM.Collect$$rtentry$$0000000C  c_w.l(__rtentry2.o)
    0x0800026e   0x0800026e   0x00000008   Code   RO         1691    .ARM.Collect$$rtentry$$0000000D  c_w.l(__rtentry2.o)
    0x08000276   0x08000276   0x00000002   Code   RO         1720    .ARM.Collect$$rtexit$$00000000  c_w.l(rtexit.o)
    0x08000278   0x08000278   0x00000000   Code   RO         1768    .ARM.Collect$$rtexit$$00000002  c_w.l(rtexit2.o)
    0x08000278   0x08000278   0x00000004   Code   RO         1769    .ARM.Collect$$rtexit$$00000003  c_w.l(rtexit2.o)
    0x0800027c   0x0800027c   0x00000006   Code   RO         1770    .ARM.Collect$$rtexit$$00000004  c_w.l(rtexit2.o)
    0x08000282   0x08000282   0x00000002   PAD
    0x08000284   0x08000284   0x00000080   Code   RO            3    .text               main.o
    0x08000304   0x08000304   0x00000016   Code   RO          184    .text               stm32f4xx_it.o
    0x0800031a   0x0800031a   0x00000002   PAD
    0x0800031c   0x0800031c   0x00000210   Code   RO          233    .text               system_stm32f4xx.o
    0x0800052c   0x0800052c   0x00000394   Code   RO          259    .text               task_tcp.o
    0x080008c0   0x080008c0   0x00000040   Code   RO          455    .text               led.o
    0x08000900   0x08000900   0x0000005c   Code   RO          475    .text               timer.o
    0x0800095c   0x0800095c   0x00000240   Code   RO          498    .text               spi.o
    0x08000b9c   0x08000b9c   0x00000128   Code   RO          559    .text               delay.o
    0x08000cc4   0x08000cc4   0x00000154   Code   RO          599    .text               usart.o
    0x08000e18   0x08000e18   0x00000040   Code   RO          631    .text               startup_stm32f40_41xxx.o
    0x08000e58   0x08000e58   0x000000e0   Code   RO          637    .text               misc.o
    0x08000f38   0x08000f38   0x00000294   Code   RO          657    .text               stm32f4xx_gpio.o
    0x080011cc   0x080011cc   0x0000065c   Code   RO          677    .text               stm32f4xx_rcc.o
    0x08001828   0x08001828   0x00000454   Code   RO          719    .text               stm32f4xx_usart.o
    0x08001c7c   0x08001c7c   0x00000480   Code   RO          759    .text               stm32f4xx_spi.o
    0x080020fc   0x080020fc   0x00000ca2   Code   RO          779    .text               stm32f4xx_tim.o
    0x08002d9e   0x08002d9e   0x00000002   PAD
    0x08002da0   0x08002da0   0x00000890   Code   RO          822    .text               os_core.o
    0x08003630   0x08003630   0x0000080c   Code   RO          850    .text               os_flag.o
    0x08003e3c   0x08003e3c   0x000005e8   Code   RO          924    .text               os_q.o
    0x08004424   0x08004424   0x000007c4   Code   RO          964    .text               os_task.o
    0x08004be8   0x08004be8   0x000001b0   Code   RO          984    .text               os_time.o
    0x08004d98   0x08004d98   0x000001c4   Code   RO         1018    .text               os_cpu_c.o
    0x08004f5c   0x08004f5c   0x000000c8   Code   RO         1046    .text               os_cpu_a.o
    0x08005024   0x08005024   0x000001c8   Code   RO         1051    .text               wiz_platform.o
    0x080051ec   0x080051ec   0x00000400   Code   RO         1085    .text               wiz_interface.o
    0x080055ec   0x080055ec   0x000010cc   Code   RO         1153    .text               socket.o
    0x080066b8   0x080066b8   0x000006dc   Code   RO         1169    .text               wizchip_conf.o
    0x08006d94   0x08006d94   0x0000043a   Code   RO         1190    .text               w5500.o
    0x080071ce   0x080071ce   0x00000002   PAD
    0x080071d0   0x080071d0   0x000011bc   Code   RO         1205    .text               dhcp.o
    0x0800838c   0x0800838c   0x00000914   Code   RO         1222    .text               modtcpbsp.o
    0x08008ca0   0x08008ca0   0x00000554   Code   RO         1255    .text               mb_user_reg.o
    0x080091f4   0x080091f4   0x000002dc   Code   RO         1294    .text               mb.o
    0x080094d0   0x080094d0   0x000001ae   Code   RO         1355    .text               mbfunccoils.o
    0x0800967e   0x0800967e   0x000000ac   Code   RO         1378    .text               mbfuncdisc.o
    0x0800972a   0x0800972a   0x00000212   Code   RO         1412    .text               mbfuncholding.o
    0x0800993c   0x0800993c   0x0000008c   Code   RO         1432    .text               mbfuncinput.o
    0x080099c8   0x080099c8   0x00000094   Code   RO         1452    .text               mbfuncother.o
    0x08009a5c   0x08009a5c   0x000000ac   Code   RO         1475    .text               mbutils.o
    0x08009b08   0x08009b08   0x00000096   Code   RO         1517    .text               mbtcp.o
    0x08009b9e   0x08009b9e   0x00000002   PAD
    0x08009ba0   0x08009ba0   0x00000048   Code   RO         1537    .text               portevent.o
    0x08009be8   0x08009be8   0x00000488   Code   RO         1559    .text               porttcp.o
    0x0800a070   0x0800a070   0x00000002   Code   RO         1585    .text               c_w.l(use_no_semi_2.o)
    0x0800a072   0x0800a072   0x00000002   PAD
    0x0800a074   0x0800a074   0x00000018   Code   RO         1589    .text               c_w.l(noretval__2printf.o)
    0x0800a08c   0x0800a08c   0x0000004e   Code   RO         1593    .text               c_w.l(_printf_pad.o)
    0x0800a0da   0x0800a0da   0x00000052   Code   RO         1595    .text               c_w.l(_printf_str.o)
    0x0800a12c   0x0800a12c   0x00000078   Code   RO         1597    .text               c_w.l(_printf_dec.o)
    0x0800a1a4   0x0800a1a4   0x00000058   Code   RO         1602    .text               c_w.l(_printf_hex_int.o)
    0x0800a1fc   0x0800a1fc   0x00000188   Code   RO         1637    .text               c_w.l(__printf_flags_ss_wp.o)
    0x0800a384   0x0800a384   0x0000008a   Code   RO         1645    .text               c_w.l(rt_memcpy_v6.o)
    0x0800a40e   0x0800a40e   0x00000084   Code   RO         1647    .text               c_w.l(rt_memmove_v6.o)
    0x0800a492   0x0800a492   0x00000006   Code   RO         1649    .text               c_w.l(heapauxi.o)
    0x0800a498   0x0800a498   0x00000002   Code   RO         1665    .text               c_w.l(use_no_semi.o)
    0x0800a49a   0x0800a49a   0x000000b2   Code   RO         1668    .text               c_w.l(_printf_intcommon.o)
    0x0800a54c   0x0800a54c   0x0000002c   Code   RO         1670    .text               c_w.l(_printf_char.o)
    0x0800a578   0x0800a578   0x00000024   Code   RO         1672    .text               c_w.l(_printf_char_file.o)
    0x0800a59c   0x0800a59c   0x00000064   Code   RO         1675    .text               c_w.l(rt_memcpy_w.o)
    0x0800a600   0x0800a600   0x0000007a   Code   RO         1677    .text               c_w.l(rt_memmove_w.o)
    0x0800a67a   0x0800a67a   0x00000002   PAD
    0x0800a67c   0x0800a67c   0x00000030   Code   RO         1699    .text               c_w.l(_printf_char_common.o)
    0x0800a6ac   0x0800a6ac   0x00000008   Code   RO         1701    .text               c_w.l(ferror.o)
    0x0800a6b4   0x0800a6b4   0x0000004a   Code   RO         1705    .text               c_w.l(sys_stackheap_outer.o)
    0x0800a6fe   0x0800a6fe   0x00000012   Code   RO         1709    .text               c_w.l(exit.o)
    0x0800a710   0x0800a710   0x00000008   Code   RO         1717    .text               c_w.l(libspace.o)
    0x0800a718   0x0800a718   0x0000000e   Code   RO         1630    i._is_digit         c_w.l(__printf_wp.o)
    0x0800a726   0x0800a726   0x0000000a   Code   RO         1776    x$fpl$fpinit        fz_wm.l(fpinit.o)
    0x0800a730   0x0800a730   0x00000100   Data   RO          824    .constdata          os_core.o
    0x0800a830   0x0800a830   0x00000028   Data   RO         1603    .constdata          c_w.l(_printf_hex_int.o)
    0x0800a858   0x0800a858   0x00000011   Data   RO         1638    .constdata          c_w.l(__printf_flags_ss_wp.o)
    0x0800a869   0x0800a869   0x00000003   PAD
    0x0800a86c   0x0800a86c   0x00000116   Data   RO         1086    .conststring        wiz_interface.o
    0x0800a982   0x0800a982   0x00000002   PAD
    0x0800a984   0x0800a984   0x00000020   Data   RO         1840    Region$$Table       anon$$obj.o


    Execution Region RW_IRAM1 (Exec base: 0x20000000, Load base: 0x0800a9a4, Size: 0x00002cb8, Max: 0x00020000, ABSOLUTE, COMPRESSED[0x000000ac])

    Exec Addr    Load Addr    Size         Type   Attr      Idx    E Section Name        Object

    0x20000000   COMPRESSED   0x00000014   Data   RW          234    .data               system_stm32f4xx.o
    0x20000014   COMPRESSED   0x00000024   Data   RW          261    .data               task_tcp.o
    0x20000038   COMPRESSED   0x00000004   Data   RW          560    .data               delay.o
    0x2000003c   COMPRESSED   0x00000006   Data   RW          601    .data               usart.o
    0x20000042   COMPRESSED   0x00000010   Data   RW          678    .data               stm32f4xx_rcc.o
    0x20000052   COMPRESSED   0x00000002   PAD
    0x20000054   COMPRESSED   0x00000048   Data   RW          825    .data               os_core.o
    0x2000009c   COMPRESSED   0x00000004   Data   RW         1052    .data               wiz_platform.o
    0x200000a0   COMPRESSED   0x0000000e   Data   RW         1155    .data               socket.o
    0x200000ae   COMPRESSED   0x00000002   PAD
    0x200000b0   COMPRESSED   0x00000031   Data   RW         1170    .data               wizchip_conf.o
    0x200000e1   COMPRESSED   0x00000003   PAD
    0x200000e4   COMPRESSED   0x00000050   Data   RW         1206    .data               dhcp.o
    0x20000134   COMPRESSED   0x00000004   Data   RW         1224    .data               modtcpbsp.o
    0x20000138   COMPRESSED   0x00000010   Data   RW         1257    .data               mb_user_reg.o
    0x20000148   COMPRESSED   0x000000b5   Data   RW         1295    .data               mb.o
    0x200001fd   COMPRESSED   0x00000001   PAD
    0x200001fe   COMPRESSED   0x00000002   Data   RW         1454    .data               mbfuncother.o
    0x20000200   COMPRESSED   0x00000002   Data   RW         1538    .data               portevent.o
    0x20000202   COMPRESSED   0x0000000c   Data   RW         1561    .data               porttcp.o
    0x2000020e   COMPRESSED   0x00000002   PAD
    0x20000210        -       0x00000100   Zero   RW            4    .bss                main.o
    0x20000310        -       0x00000b04   Zero   RW          260    .bss                task_tcp.o
    0x20000e14        -       0x000000c8   Zero   RW          600    .bss                usart.o
    0x20000edc        -       0x00000a80   Zero   RW          823    .bss                os_core.o
    0x2000195c        -       0x00000010   Zero   RW         1154    .bss                socket.o
    0x2000196c        -       0x00000420   Zero   RW         1223    .bss                modtcpbsp.o
    0x20001d8c        -       0x00000190   Zero   RW         1256    .bss                mb_user_reg.o
    0x20001f1c        -       0x00000020   Zero   RW         1453    .bss                mbfuncother.o
    0x20001f3c        -       0x0000071c   Zero   RW         1560    .bss                porttcp.o
    0x20002658        -       0x00000060   Zero   RW         1718    .bss                c_w.l(libspace.o)
    0x200026b8        -       0x00000200   Zero   RW          629    HEAP                startup_stm32f40_41xxx.o
    0x200028b8        -       0x00000400   Zero   RW          628    STACK               startup_stm32f40_41xxx.o


==============================================================================

Image component sizes


      Code (inc. data)   RO Data    RW Data    ZI Data      Debug   Object Name

       296         18          0          4          0       1829   delay.o
      4540        246          0         80          0      10187   dhcp.o
        64          4          0          0          0        519   led.o
       128         22          0          0        256     299668   main.o
       732         72          0        181          0       4921   mb.o
      1364         26          0         16        400      12199   mb_user_reg.o
       430          0          0          0          0       3010   mbfunccoils.o
       172          0          0          0          0       1572   mbfuncdisc.o
       530          0          0          0          0       3881   mbfuncholding.o
       140          0          0          0          0       1523   mbfuncinput.o
       148          8          0          2         32       1757   mbfuncother.o
       150          0          0          0          0       2251   mbtcp.o
       172          0          0          0          0       1942   mbutils.o
       224         20          0          0          0       1801   misc.o
      2324        668          0          4       1056       7525   modtcpbsp.o
      2192        218        256         72       2688      15227   os_core.o
       200         32          0          0          0        312   os_cpu_a.o
       452          6          0          0          0      10594   os_cpu_c.o
      2060         42          0          0          0       7208   os_flag.o
      1512         30          0          0          0       5769   os_q.o
      1988         70          0          0          0       7885   os_task.o
       432         30          0          0          0       1870   os_time.o
        72         10          0          2          0       1612   portevent.o
      1160        254          0         12       1820       4418   porttcp.o
      4300         88          0         14         16       7484   socket.o
       576         14          0          0          0       1800   spi.o
        64         26        392          0       1536        824   startup_stm32f40_41xxx.o
       660         44          0          0          0       4145   stm32f4xx_gpio.o
        22          0          0          0          0       1027   stm32f4xx_it.o
      1628         52          0         16          0      13008   stm32f4xx_rcc.o
      1152         36          0          0          0       6893   stm32f4xx_spi.o
      3234         60          0          0          0      23000   stm32f4xx_tim.o
      1108         34          0          0          0       7868   stm32f4xx_usart.o
       528         46          0         20          0       1755   system_stm32f4xx.o
       916        488          0         36       2820       7822   task_tcp.o
         0          0          0          0          0       1756   tcp_server_multi_socket.o
        92          4          0          0          0        688   timer.o
       340         18          0          6        200       3342   usart.o
      1082          6          0          0          0       3746   w5500.o
      1024        442        278          0          0       2744   wiz_interface.o
       456         12          0          4          0       6413   wiz_platform.o
      1756         38          0         49          0      12327   wizchip_conf.o

    ----------------------------------------------------------------------
     40428       3184        960        528      10824     516122   Object Totals
         0          0         32          0          0          0   (incl. Generated)
         8          0          2         10          0          0   (incl. Padding)

    ----------------------------------------------------------------------

      Code (inc. data)   RO Data    RW Data    ZI Data      Debug   Library Member Name

        90          0          0          0          0          0   __dczerorl2.o
         8          0          0          0          0         68   __main.o
       392          4         17          0          0         92   __printf_flags_ss_wp.o
        14          0          0          0          0         68   __printf_wp.o
         0          0          0          0          0          0   __rtentry.o
        12          0          0          0          0          0   __rtentry2.o
         6          0          0          0          0          0   __rtentry4.o
        52          8          0          0          0          0   __scatter.o
        28          0          0          0          0          0   __scatter_zi.o
        44          0          0          0          0        108   _printf_char.o
        48          6          0          0          0         96   _printf_char_common.o
        36          4          0          0          0         80   _printf_char_file.o
         6          0          0          0          0          0   _printf_d.o
       120         16          0          0          0         92   _printf_dec.o
        88          4         40          0          0         88   _printf_hex_int.o
       178          0          0          0          0         88   _printf_intcommon.o
        78          0          0          0          0        108   _printf_pad.o
         0          0          0          0          0          0   _printf_percent.o
         4          0          0          0          0          0   _printf_percent_end.o
         6          0          0          0          0          0   _printf_s.o
        82          0          0          0          0         80   _printf_str.o
         6          0          0          0          0          0   _printf_u.o
         6          0          0          0          0          0   _printf_x.o
        18          0          0          0          0         80   exit.o
         8          0          0          0          0         68   ferror.o
         6          0          0          0          0        152   heapauxi.o
         2          0          0          0          0          0   libinit.o
         6          0          0          0          0          0   libinit2.o
         2          0          0          0          0          0   libshutdown.o
         2          0          0          0          0          0   libshutdown2.o
         8          4          0          0         96         68   libspace.o
        24          4          0          0          0         84   noretval__2printf.o
       138          0          0          0          0         68   rt_memcpy_v6.o
       100          0          0          0          0         80   rt_memcpy_w.o
       132          0          0          0          0         68   rt_memmove_v6.o
       122          0          0          0          0         80   rt_memmove_w.o
         2          0          0          0          0          0   rtexit.o
        10          0          0          0          0          0   rtexit2.o
        74          0          0          0          0         80   sys_stackheap_outer.o
         2          0          0          0          0         68   use_no_semi.o
         2          0          0          0          0         68   use_no_semi_2.o
        10          0          0          0          0        116   fpinit.o

    ----------------------------------------------------------------------
      1980         50         60          0         96       2048   Library Totals
         8          0          3          0          0          0   (incl. Padding)

    ----------------------------------------------------------------------

      Code (inc. data)   RO Data    RW Data    ZI Data      Debug   Library Name

      1962         50         57          0         96       1932   c_w.l
        10          0          0          0          0        116   fz_wm.l

    ----------------------------------------------------------------------
      1980         50         60          0         96       2048   Library Totals

    ----------------------------------------------------------------------

==============================================================================


      Code (inc. data)   RO Data    RW Data    ZI Data      Debug   

     42408       3234       1020        528      10920     509482   Grand Totals
     42408       3234       1020        172      10920     509482   ELF Image Totals (compressed)
     42408       3234       1020        172          0          0   ROM Totals

==============================================================================

    Total RO  Size (Code + RO Data)                43428 (  42.41kB)
    Total RW  Size (RW Data + ZI Data)             11448 (  11.18kB)
    Total ROM Size (Code + RO Data + RW Data)      43600 (  42.58kB)

==============================================================================

